	.file	"log.cpp"
	.text
.Ltext0:
	.cfi_sections	.debug_frame
	.file 0 "D:/Study_Projects/myWebserver-main" "log/log.cpp"
	.def	_ZL11localtime_rPKxP2tm;	.scl	3;	.type	32;	.endef
	.seh_proc	_ZL11localtime_rPKxP2tm
_ZL11localtime_rPKxP2tm:
.LASANPC11:
.LFB11:
	.file 1 "./.codex_tmp/win_compat.h"
	.loc 1 7 1
	.cfi_startproc
	pushq	%rbp
	.seh_pushreg	%rbp
	.cfi_def_cfa_offset 16
	.cfi_offset 6, -16
	movq	%rsp, %rbp
	.seh_setframe	%rbp, 0
	.cfi_def_cfa_register 6
	subq	$32, %rsp
	.seh_stackalloc	32
	.seh_endprologue
	movq	%rcx, 16(%rbp)
	movq	%rdx, 24(%rbp)
	.loc 1 8 23
	movq	16(%rbp), %rdx
	movq	24(%rbp), %rax
	movq	%rax, %rcx
	call	_localtime64_s
	.loc 1 8 44 discriminator 1
	testl	%eax, %eax
	jne	.L2
	.loc 1 8 55 discriminator 2
	movq	24(%rbp), %rax
	.loc 1 8 55 is_stmt 0
	jmp	.L4
.L2:
	.loc 1 8 55 discriminator 3
	movl	$0, %eax
.L4:
	.loc 1 9 1 is_stmt 1
	addq	$32, %rsp
	popq	%rbp
	.cfi_restore 6
	.cfi_def_cfa 7, 8
	ret
	.cfi_endproc
.LFE11:
	.seh_endproc
	.section	.text$_Z9vsnprintfPcyPKcS_,"x"
	.linkonce discard
	.globl	_Z9vsnprintfPcyPKcS_
	.def	_Z9vsnprintfPcyPKcS_;	.scl	2;	.type	32;	.endef
	.seh_proc	_Z9vsnprintfPcyPKcS_
_Z9vsnprintfPcyPKcS_:
.LASANPC43:
.LFB43:
	.file 2 "D:/MSYS2_0/ucrt64/include/stdio.h"
	.loc 2 417 1
	.cfi_startproc
	pushq	%rbp
	.seh_pushreg	%rbp
	.cfi_def_cfa_offset 16
	.cfi_offset 6, -16
	movq	%rsp, %rbp
	.seh_setframe	%rbp, 0
	.cfi_def_cfa_register 6
	subq	$32, %rsp
	.seh_stackalloc	32
	.seh_endprologue
	movq	%rcx, 16(%rbp)
	movq	%rdx, 24(%rbp)
	movq	%r8, 32(%rbp)
	movq	%r9, 40(%rbp)
	.loc 2 421 27
	movq	40(%rbp), %r8
	movq	32(%rbp), %rcx
	movq	24(%rbp), %rdx
	movq	16(%rbp), %rax
	movq	%r8, %r9
	movq	%rcx, %r8
	movq	%rax, %rcx
	call	__mingw_vsnprintf
	.loc 2 422 1
	addq	$32, %rsp
	popq	%rbp
	.cfi_restore 6
	.cfi_def_cfa 7, 8
	ret
	.cfi_endproc
.LFE43:
	.seh_endproc
	.section	.text$_ZNSt9exceptionC1Ev,"x"
	.linkonce discard
	.align 2
	.globl	_ZNSt9exceptionC1Ev
	.def	_ZNSt9exceptionC1Ev;	.scl	2;	.type	32;	.endef
	.seh_proc	_ZNSt9exceptionC1Ev
_ZNSt9exceptionC1Ev:
.LASANPC197:
.LFB197:
	.file 3 "D:/MSYS2_0/ucrt64/include/c++/15.2.0/bits/exception.h"
	.loc 3 64 5
	.cfi_startproc
	pushq	%rbp
	.seh_pushreg	%rbp
	.cfi_def_cfa_offset 16
	.cfi_offset 6, -16
	movq	%rsp, %rbp
	.seh_setframe	%rbp, 0
	.cfi_def_cfa_register 6
	subq	$32, %rsp
	.seh_stackalloc	32
	.seh_endprologue
	movq	%rcx, 16(%rbp)
.LBB99:
	.loc 3 64 34
	movq	.refptr._ZTVSt9exception(%rip), %rax
	leaq	16(%rax), %rcx
	movq	16(%rbp), %rax
	movq	%rax, %rdx
	shrq	$3, %rdx
	addq	$2147450880, %rdx
	movzbl	(%rdx), %edx
	testb	%dl, %dl
	je	.L8
	movq	%rax, %rcx
	call	__asan_report_store8
.L8:
	movq	16(%rbp), %rax
	movq	%rcx, (%rax)
.LBE99:
	.loc 3 64 36
	nop
	addq	$32, %rsp
	popq	%rbp
	.cfi_restore 6
	.cfi_def_cfa 7, 8
	ret
	.cfi_endproc
.LFE197:
	.seh_endproc
	.section	.text$_ZNSt11char_traitsIcE6assignERcRKc,"x"
	.linkonce discard
	.globl	_ZNSt11char_traitsIcE6assignERcRKc
	.def	_ZNSt11char_traitsIcE6assignERcRKc;	.scl	2;	.type	32;	.endef
	.seh_proc	_ZNSt11char_traitsIcE6assignERcRKc
_ZNSt11char_traitsIcE6assignERcRKc:
.LASANPC293:
.LFB293:
	.file 4 "D:/MSYS2_0/ucrt64/include/c++/15.2.0/bits/char_traits.h"
	.loc 4 345 7
	.cfi_startproc
	pushq	%rbp
	.seh_pushreg	%rbp
	.cfi_def_cfa_offset 16
	.cfi_offset 6, -16
	movq	%rsp, %rbp
	.seh_setframe	%rbp, 0
	.cfi_def_cfa_register 6
	subq	$32, %rsp
	.seh_stackalloc	32
	.seh_endprologue
	movq	%rcx, 16(%rbp)
	movq	%rdx, 24(%rbp)
	.loc 4 352 9
	movq	24(%rbp), %rax
	movq	%rax, %rdx
	shrq	$3, %rdx
	addq	$2147450880, %rdx
	movzbl	(%rdx), %edx
	testb	%dl, %dl
	setne	%cl
	movq	%rax, %r8
	andl	$7, %r8d
	cmpb	%dl, %r8b
	setge	%dl
	andl	%ecx, %edx
	testb	%dl, %dl
	je	.L10
	movq	%rax, %rcx
	call	__asan_report_load1
.L10:
	movq	24(%rbp), %rax
	movzbl	(%rax), %ecx
	.loc 4 352 7
	movq	16(%rbp), %rax
	movq	%rax, %rdx
	shrq	$3, %rdx
	addq	$2147450880, %rdx
	movzbl	(%rdx), %edx
	testb	%dl, %dl
	setne	%r8b
	movq	%rax, %r9
	andl	$7, %r9d
	cmpb	%dl, %r9b
	setge	%dl
	andl	%r8d, %edx
	testb	%dl, %dl
	je	.L11
	movq	%rax, %rcx
	call	__asan_report_store1
.L11:
	movq	16(%rbp), %rax
	movb	%cl, (%rax)
	.loc 4 353 7
	nop
	addq	$32, %rsp
	popq	%rbp
	.cfi_restore 6
	.cfi_def_cfa 7, 8
	ret
	.cfi_endproc
.LFE293:
	.seh_endproc
	.section	.text$_ZNSt11char_traitsIcE6lengthEPKc,"x"
	.linkonce discard
	.globl	_ZNSt11char_traitsIcE6lengthEPKc
	.def	_ZNSt11char_traitsIcE6lengthEPKc;	.scl	2;	.type	32;	.endef
	.seh_proc	_ZNSt11char_traitsIcE6lengthEPKc
_ZNSt11char_traitsIcE6lengthEPKc:
.LASANPC297:
.LFB297:
	.loc 4 387 7
	.cfi_startproc
	pushq	%rbp
	.seh_pushreg	%rbp
	.cfi_def_cfa_offset 16
	.cfi_offset 6, -16
	movq	%rsp, %rbp
	.seh_setframe	%rbp, 0
	.cfi_def_cfa_register 6
	subq	$32, %rsp
	.seh_stackalloc	32
	.seh_endprologue
	movq	%rcx, 16(%rbp)
	.loc 4 393 25
	movq	16(%rbp), %rax
	movq	%rax, %rcx
	call	strlen
	.loc 4 394 7
	addq	$32, %rsp
	popq	%rbp
	.cfi_restore 6
	.cfi_def_cfa 7, 8
	ret
	.cfi_endproc
.LFE297:
	.seh_endproc
	.section	.text$_ZNSt11char_traitsIcE4moveEPcPKcy,"x"
	.linkonce discard
	.globl	_ZNSt11char_traitsIcE4moveEPcPKcy
	.def	_ZNSt11char_traitsIcE4moveEPcPKcy;	.scl	2;	.type	32;	.endef
	.seh_proc	_ZNSt11char_traitsIcE4moveEPcPKcy
_ZNSt11char_traitsIcE4moveEPcPKcy:
.LASANPC299:
.LFB299:
	.loc 4 409 7
	.cfi_startproc
	pushq	%rbp
	.seh_pushreg	%rbp
	.cfi_def_cfa_offset 16
	.cfi_offset 6, -16
	movq	%rsp, %rbp
	.seh_setframe	%rbp, 0
	.cfi_def_cfa_register 6
	subq	$32, %rsp
	.seh_stackalloc	32
	.seh_endprologue
	movq	%rcx, 16(%rbp)
	movq	%rdx, 24(%rbp)
	movq	%r8, 32(%rbp)
	.loc 4 411 2
	cmpq	$0, 32(%rbp)
	jne	.L15
	.loc 4 412 11
	movq	16(%rbp), %rax
	jmp	.L16
.L15:
	.loc 4 417 50
	movq	32(%rbp), %rcx
	movq	24(%rbp), %rdx
	movq	16(%rbp), %rax
	movq	%rcx, %r8
	movq	%rax, %rcx
	call	memmove
	.loc 4 417 67
	nop
.L16:
	.loc 4 418 7
	addq	$32, %rsp
	popq	%rbp
	.cfi_restore 6
	.cfi_def_cfa 7, 8
	ret
	.cfi_endproc
.LFE299:
	.seh_endproc
	.section	.text$_ZNSt11char_traitsIcE4copyEPcPKcy,"x"
	.linkonce discard
	.globl	_ZNSt11char_traitsIcE4copyEPcPKcy
	.def	_ZNSt11char_traitsIcE4copyEPcPKcy;	.scl	2;	.type	32;	.endef
	.seh_proc	_ZNSt11char_traitsIcE4copyEPcPKcy
_ZNSt11char_traitsIcE4copyEPcPKcy:
.LASANPC300:
.LFB300:
	.loc 4 421 7
	.cfi_startproc
	pushq	%rbp
	.seh_pushreg	%rbp
	.cfi_def_cfa_offset 16
	.cfi_offset 6, -16
	movq	%rsp, %rbp
	.seh_setframe	%rbp, 0
	.cfi_def_cfa_register 6
	subq	$32, %rsp
	.seh_stackalloc	32
	.seh_endprologue
	movq	%rcx, 16(%rbp)
	movq	%rdx, 24(%rbp)
	movq	%r8, 32(%rbp)
	.loc 4 423 2
	cmpq	$0, 32(%rbp)
	jne	.L18
	.loc 4 424 11
	movq	16(%rbp), %rax
	jmp	.L19
.L18:
	.loc 4 429 49
	movq	32(%rbp), %rcx
	movq	24(%rbp), %rdx
	movq	16(%rbp), %rax
	movq	%rcx, %r8
	movq	%rax, %rcx
	call	memcpy
	.loc 4 429 66
	nop
.L19:
	.loc 4 430 7
	addq	$32, %rsp
	popq	%rbp
	.cfi_restore 6
	.cfi_def_cfa 7, 8
	ret
	.cfi_endproc
.LFE300:
	.seh_endproc
	.section .rdata,"dr"
	.align 32
_ZStL6ignore:
	.space 1
	.space 63
	.align 32
_ZStL19piecewise_construct:
	.space 1
	.space 63
	.section	.text$_ZN6lockerC1Ev,"x"
	.linkonce discard
	.align 2
	.globl	_ZN6lockerC1Ev
	.def	_ZN6lockerC1Ev;	.scl	2;	.type	32;	.endef
	.seh_proc	_ZN6lockerC1Ev
_ZN6lockerC1Ev:
.LASANPC1755:
.LFB1755:
	.file 5 "log/../lock/locker.h"
	.loc 5 40 5
	.cfi_startproc
	pushq	%rbp
	.seh_pushreg	%rbp
	.cfi_def_cfa_offset 16
	.cfi_offset 6, -16
	pushq	%rbx
	.seh_pushreg	%rbx
	.cfi_def_cfa_offset 24
	.cfi_offset 3, -24
	subq	$40, %rsp
	.seh_stackalloc	40
	.cfi_def_cfa_offset 64
	leaq	32(%rsp), %rbp
	.seh_setframe	%rbp, 32
	.cfi_def_cfa 6, 32
	.seh_endprologue
	movq	%rcx, 32(%rbp)
.LBB100:
	.loc 5 41 31
	movq	32(%rbp), %rax
	movl	$0, %edx
	movq	%rax, %rcx
	call	pthread_mutex_init
	.loc 5 41 48 discriminator 1
	testl	%eax, %eax
	setne	%al
	.loc 5 41 9 discriminator 1
	testb	%al, %al
	je	.L22
	.loc 5 42 34
	movl	$8, %ecx
	call	__cxa_allocate_exception
	movq	%rax, %rbx
	.loc 5 42 34 is_stmt 0 discriminator 1
	movq	%rbx, %rcx
	call	_ZNSt9exceptionC1Ev
	.loc 5 42 34 discriminator 2
	call	__asan_handle_no_return
	movq	.refptr._ZNSt9exceptionD1Ev(%rip), %rdx
	leaq	_ZTISt9exception(%rip), %rax
	movq	%rdx, %r8
	movq	%rax, %rdx
	movq	%rbx, %rcx
	call	__cxa_throw
.L22:
.LBE100:
	.loc 5 44 5 is_stmt 1
	nop
	addq	$40, %rsp
	popq	%rbx
	.cfi_restore 3
	popq	%rbp
	.cfi_restore 6
	.cfi_def_cfa 7, -24
	ret
	.cfi_endproc
.LFE1755:
	.seh_endproc
	.section	.text$_ZN6lockerD1Ev,"x"
	.linkonce discard
	.align 2
	.globl	_ZN6lockerD1Ev
	.def	_ZN6lockerD1Ev;	.scl	2;	.type	32;	.endef
	.seh_proc	_ZN6lockerD1Ev
_ZN6lockerD1Ev:
.LASANPC1758:
.LFB1758:
	.loc 5 46 5
	.cfi_startproc
	pushq	%rbp
	.seh_pushreg	%rbp
	.cfi_def_cfa_offset 16
	.cfi_offset 6, -16
	movq	%rsp, %rbp
	.seh_setframe	%rbp, 0
	.cfi_def_cfa_register 6
	subq	$32, %rsp
	.seh_stackalloc	32
	.seh_endprologue
	movq	%rcx, 16(%rbp)
.LBB101:
	.loc 5 47 30
	movq	16(%rbp), %rax
	movq	%rax, %rcx
	call	pthread_mutex_destroy
.LBE101:
	.loc 5 48 5
	nop
	addq	$32, %rsp
	popq	%rbp
	.cfi_restore 6
	.cfi_def_cfa 7, 8
	ret
	.cfi_endproc
.LFE1758:
	.seh_handler	__gxx_personality_seh0, @unwind, @except
	.seh_handlerdata
.LLSDA1758:
	.byte	0xff
	.byte	0xff
	.byte	0x1
	.uleb128 .LLSDACSE1758-.LLSDACSB1758
.LLSDACSB1758:
.LLSDACSE1758:
	.section	.text$_ZN6lockerD1Ev,"x"
	.linkonce discard
	.seh_endproc
	.section	.text$_ZN6locker4lockEv,"x"
	.linkonce discard
	.align 2
	.globl	_ZN6locker4lockEv
	.def	_ZN6locker4lockEv;	.scl	2;	.type	32;	.endef
	.seh_proc	_ZN6locker4lockEv
_ZN6locker4lockEv:
.LASANPC1759:
.LFB1759:
	.loc 5 50 10
	.cfi_startproc
	pushq	%rbp
	.seh_pushreg	%rbp
	.cfi_def_cfa_offset 16
	.cfi_offset 6, -16
	movq	%rsp, %rbp
	.seh_setframe	%rbp, 0
	.cfi_def_cfa_register 6
	subq	$32, %rsp
	.seh_stackalloc	32
	.seh_endprologue
	movq	%rcx, 16(%rbp)
	.loc 5 50 44
	movq	16(%rbp), %rax
	movq	%rax, %rcx
	call	pthread_mutex_lock
	.loc 5 50 58 discriminator 1
	testl	%eax, %eax
	sete	%al
	.loc 5 50 61
	addq	$32, %rsp
	popq	%rbp
	.cfi_restore 6
	.cfi_def_cfa 7, 8
	ret
	.cfi_endproc
.LFE1759:
	.seh_endproc
	.section	.text$_ZN6locker6unlockEv,"x"
	.linkonce discard
	.align 2
	.globl	_ZN6locker6unlockEv
	.def	_ZN6locker6unlockEv;	.scl	2;	.type	32;	.endef
	.seh_proc	_ZN6locker6unlockEv
_ZN6locker6unlockEv:
.LASANPC1760:
.LFB1760:
	.loc 5 52 10
	.cfi_startproc
	pushq	%rbp
	.seh_pushreg	%rbp
	.cfi_def_cfa_offset 16
	.cfi_offset 6, -16
	movq	%rsp, %rbp
	.seh_setframe	%rbp, 0
	.cfi_def_cfa_register 6
	subq	$32, %rsp
	.seh_stackalloc	32
	.seh_endprologue
	movq	%rcx, 16(%rbp)
	.loc 5 52 48
	movq	16(%rbp), %rax
	movq	%rax, %rcx
	call	pthread_mutex_unlock
	.loc 5 52 62 discriminator 1
	testl	%eax, %eax
	sete	%al
	.loc 5 52 65
	addq	$32, %rsp
	popq	%rbp
	.cfi_restore 6
	.cfi_def_cfa 7, 8
	ret
	.cfi_endproc
.LFE1760:
	.seh_endproc
	.section	.text$_ZN6locker3getEv,"x"
	.linkonce discard
	.align 2
	.globl	_ZN6locker3getEv
	.def	_ZN6locker3getEv;	.scl	2;	.type	32;	.endef
	.seh_proc	_ZN6locker3getEv
_ZN6locker3getEv:
.LASANPC1761:
.LFB1761:
	.loc 5 54 22
	.cfi_startproc
	pushq	%rbp
	.seh_pushreg	%rbp
	.cfi_def_cfa_offset 16
	.cfi_offset 6, -16
	movq	%rsp, %rbp
	.seh_setframe	%rbp, 0
	.cfi_def_cfa_register 6
	.seh_endprologue
	movq	%rcx, 16(%rbp)
	.loc 5 54 38
	movq	16(%rbp), %rax
	.loc 5 54 47
	popq	%rbp
	.cfi_restore 6
	.cfi_def_cfa 7, 8
	ret
	.cfi_endproc
.LFE1761:
	.seh_endproc
	.section	.text$_ZN12locker_guardC1ER6locker,"x"
	.linkonce discard
	.align 2
	.globl	_ZN12locker_guardC1ER6locker
	.def	_ZN12locker_guardC1ER6locker;	.scl	2;	.type	32;	.endef
	.seh_proc	_ZN12locker_guardC1ER6locker
_ZN12locker_guardC1ER6locker:
.LASANPC1764:
.LFB1764:
	.loc 5 63 14
	.cfi_startproc
	pushq	%rbp
	.seh_pushreg	%rbp
	.cfi_def_cfa_offset 16
	.cfi_offset 6, -16
	movq	%rsp, %rbp
	.seh_setframe	%rbp, 0
	.cfi_def_cfa_register 6
	subq	$32, %rsp
	.seh_stackalloc	32
	.seh_endprologue
	movq	%rcx, 16(%rbp)
	movq	%rdx, 24(%rbp)
.LBB102:
	.loc 5 63 40
	movq	16(%rbp), %rax
	movq	%rax, %rdx
	shrq	$3, %rdx
	addq	$2147450880, %rdx
	movzbl	(%rdx), %edx
	testb	%dl, %dl
	je	.L31
	movq	%rax, %rcx
	call	__asan_report_store8
.L31:
	movq	16(%rbp), %rax
	movq	24(%rbp), %rdx
	movq	%rdx, (%rax)
	.loc 5 64 9
	movq	16(%rbp), %rax
	movq	(%rax), %rax
	.loc 5 64 22
	movq	%rax, %rcx
	call	_ZN6locker4lockEv
.LBE102:
	.loc 5 65 5
	nop
	addq	$32, %rsp
	popq	%rbp
	.cfi_restore 6
	.cfi_def_cfa 7, 8
	ret
	.cfi_endproc
.LFE1764:
	.seh_endproc
	.section	.text$_ZN12locker_guardD1Ev,"x"
	.linkonce discard
	.align 2
	.globl	_ZN12locker_guardD1Ev
	.def	_ZN12locker_guardD1Ev;	.scl	2;	.type	32;	.endef
	.seh_proc	_ZN12locker_guardD1Ev
_ZN12locker_guardD1Ev:
.LASANPC1767:
.LFB1767:
	.loc 5 67 5
	.cfi_startproc
	pushq	%rbp
	.seh_pushreg	%rbp
	.cfi_def_cfa_offset 16
	.cfi_offset 6, -16
	movq	%rsp, %rbp
	.seh_setframe	%rbp, 0
	.cfi_def_cfa_register 6
	subq	$32, %rsp
	.seh_stackalloc	32
	.seh_endprologue
	movq	%rcx, 16(%rbp)
.LBB103:
	.loc 5 68 9
	movq	16(%rbp), %rax
	movq	%rax, %rdx
	shrq	$3, %rdx
	addq	$2147450880, %rdx
	movzbl	(%rdx), %edx
	testb	%dl, %dl
	je	.L33
	movq	%rax, %rcx
	call	__asan_report_load8
.L33:
	movq	16(%rbp), %rax
	movq	(%rax), %rax
	.loc 5 68 24
	movq	%rax, %rcx
	call	_ZN6locker6unlockEv
.LBE103:
	.loc 5 69 5
	nop
	addq	$32, %rsp
	popq	%rbp
	.cfi_restore 6
	.cfi_def_cfa 7, 8
	ret
	.cfi_endproc
.LFE1767:
	.seh_handler	__gxx_personality_seh0, @unwind, @except
	.seh_handlerdata
.LLSDA1767:
	.byte	0xff
	.byte	0xff
	.byte	0x1
	.uleb128 .LLSDACSE1767-.LLSDACSB1767
.LLSDACSB1767:
.LLSDACSE1767:
	.section	.text$_ZN12locker_guardD1Ev,"x"
	.linkonce discard
	.seh_endproc
	.section	.text$_ZN4condC1Ev,"x"
	.linkonce discard
	.align 2
	.globl	_ZN4condC1Ev
	.def	_ZN4condC1Ev;	.scl	2;	.type	32;	.endef
	.seh_proc	_ZN4condC1Ev
_ZN4condC1Ev:
.LASANPC1770:
.LFB1770:
	.loc 5 82 5
	.cfi_startproc
	pushq	%rbp
	.seh_pushreg	%rbp
	.cfi_def_cfa_offset 16
	.cfi_offset 6, -16
	pushq	%rbx
	.seh_pushreg	%rbx
	.cfi_def_cfa_offset 24
	.cfi_offset 3, -24
	subq	$40, %rsp
	.seh_stackalloc	40
	.cfi_def_cfa_offset 64
	leaq	32(%rsp), %rbp
	.seh_setframe	%rbp, 32
	.cfi_def_cfa 6, 32
	.seh_endprologue
	movq	%rcx, 32(%rbp)
.LBB104:
	.loc 5 83 30
	movq	32(%rbp), %rax
	movl	$0, %edx
	movq	%rax, %rcx
	call	pthread_cond_init
	.loc 5 83 46 discriminator 1
	testl	%eax, %eax
	setne	%al
	.loc 5 83 9 discriminator 1
	testb	%al, %al
	je	.L36
	.loc 5 85 34
	movl	$8, %ecx
	call	__cxa_allocate_exception
	movq	%rax, %rbx
	.loc 5 85 34 is_stmt 0 discriminator 1
	movq	%rbx, %rcx
	call	_ZNSt9exceptionC1Ev
	.loc 5 85 34 discriminator 2
	call	__asan_handle_no_return
	movq	.refptr._ZNSt9exceptionD1Ev(%rip), %rdx
	leaq	_ZTISt9exception(%rip), %rax
	movq	%rdx, %r8
	movq	%rax, %rdx
	movq	%rbx, %rcx
	call	__cxa_throw
.L36:
.LBE104:
	.loc 5 87 5 is_stmt 1
	nop
	addq	$40, %rsp
	popq	%rbx
	.cfi_restore 3
	popq	%rbp
	.cfi_restore 6
	.cfi_def_cfa 7, -24
	ret
	.cfi_endproc
.LFE1770:
	.seh_endproc
	.section	.text$_ZN4condD1Ev,"x"
	.linkonce discard
	.align 2
	.globl	_ZN4condD1Ev
	.def	_ZN4condD1Ev;	.scl	2;	.type	32;	.endef
	.seh_proc	_ZN4condD1Ev
_ZN4condD1Ev:
.LASANPC1773:
.LFB1773:
	.loc 5 89 5
	.cfi_startproc
	pushq	%rbp
	.seh_pushreg	%rbp
	.cfi_def_cfa_offset 16
	.cfi_offset 6, -16
	movq	%rsp, %rbp
	.seh_setframe	%rbp, 0
	.cfi_def_cfa_register 6
	subq	$32, %rsp
	.seh_stackalloc	32
	.seh_endprologue
	movq	%rcx, 16(%rbp)
.LBB105:
	.loc 5 90 29
	movq	16(%rbp), %rax
	movq	%rax, %rcx
	call	pthread_cond_destroy
.LBE105:
	.loc 5 91 5
	nop
	addq	$32, %rsp
	popq	%rbp
	.cfi_restore 6
	.cfi_def_cfa 7, 8
	ret
	.cfi_endproc
.LFE1773:
	.seh_handler	__gxx_personality_seh0, @unwind, @except
	.seh_handlerdata
.LLSDA1773:
	.byte	0xff
	.byte	0xff
	.byte	0x1
	.uleb128 .LLSDACSE1773-.LLSDACSB1773
.LLSDACSB1773:
.LLSDACSE1773:
	.section	.text$_ZN4condD1Ev,"x"
	.linkonce discard
	.seh_endproc
	.section	.text$_ZN4cond4waitEPx,"x"
	.linkonce discard
	.align 2
	.globl	_ZN4cond4waitEPx
	.def	_ZN4cond4waitEPx;	.scl	2;	.type	32;	.endef
	.seh_proc	_ZN4cond4waitEPx
_ZN4cond4waitEPx:
.LASANPC1774:
.LFB1774:
	.loc 5 93 10
	.cfi_startproc
	pushq	%rbp
	.seh_pushreg	%rbp
	.cfi_def_cfa_offset 16
	.cfi_offset 6, -16
	movq	%rsp, %rbp
	.seh_setframe	%rbp, 0
	.cfi_def_cfa_register 6
	subq	$48, %rsp
	.seh_stackalloc	48
	.seh_endprologue
	movq	%rcx, 16(%rbp)
	movq	%rdx, 24(%rbp)
	.loc 5 94 13
	movl	$0, -4(%rbp)
	.loc 5 96 32
	movq	16(%rbp), %rax
	movq	24(%rbp), %rdx
	movq	%rax, %rcx
	call	pthread_cond_wait
	.loc 5 96 32 is_stmt 0 discriminator 1
	movl	%eax, -4(%rbp)
	.loc 5 98 23 is_stmt 1
	cmpl	$0, -4(%rbp)
	sete	%al
	.loc 5 99 5
	addq	$48, %rsp
	popq	%rbp
	.cfi_restore 6
	.cfi_def_cfa 7, 8
	ret
	.cfi_endproc
.LFE1774:
	.seh_endproc
	.section	.text$_ZN4cond9broadcastEv,"x"
	.linkonce discard
	.align 2
	.globl	_ZN4cond9broadcastEv
	.def	_ZN4cond9broadcastEv;	.scl	2;	.type	32;	.endef
	.seh_proc	_ZN4cond9broadcastEv
_ZN4cond9broadcastEv:
.LASANPC1777:
.LFB1777:
	.loc 5 113 10
	.cfi_startproc
	pushq	%rbp
	.seh_pushreg	%rbp
	.cfi_def_cfa_offset 16
	.cfi_offset 6, -16
	movq	%rsp, %rbp
	.seh_setframe	%rbp, 0
	.cfi_def_cfa_register 6
	subq	$32, %rsp
	.seh_stackalloc	32
	.seh_endprologue
	movq	%rcx, 16(%rbp)
	.loc 5 114 38
	movq	16(%rbp), %rax
	movq	%rax, %rcx
	call	pthread_cond_broadcast
	.loc 5 114 51 discriminator 1
	testl	%eax, %eax
	sete	%al
	.loc 5 115 5
	addq	$32, %rsp
	popq	%rbp
	.cfi_restore 6
	.cfi_def_cfa 7, 8
	ret
	.cfi_endproc
.LFE1777:
	.seh_endproc
	.globl	_ZZN3Log12get_instanceEvE8instance
	.section	.data$_ZZN3Log12get_instanceEvE8instance,"w"
	.linkonce same_size
	.align 32
_ZZN3Log12get_instanceEvE8instance:
	.space 336
	.globl	_ZGVZN3Log12get_instanceEvE8instance
	.section	.data$_ZGVZN3Log12get_instanceEvE8instance,"w"
	.linkonce same_size
	.align 8
_ZGVZN3Log12get_instanceEvE8instance:
	.space 8
	.text
	.def	__tcf_ZZN3Log12get_instanceEvE8instance;	.scl	3;	.type	32;	.endef
	.seh_proc	__tcf_ZZN3Log12get_instanceEvE8instance
__tcf_ZZN3Log12get_instanceEvE8instance:
.LASANPC1791:
.LFB1791:
	.file 6 "log/log.h"
	.loc 6 20 20
	.cfi_startproc
	pushq	%rbp
	.seh_pushreg	%rbp
	.cfi_def_cfa_offset 16
	.cfi_offset 6, -16
	movq	%rsp, %rbp
	.seh_setframe	%rbp, 0
	.cfi_def_cfa_register 6
	subq	$32, %rsp
	.seh_stackalloc	32
	.seh_endprologue
	.loc 6 20 20
	leaq	_ZZN3Log12get_instanceEvE8instance(%rip), %rax
	movq	%rax, %rcx
	call	_ZN3LogD1Ev
	nop
	addq	$32, %rsp
	popq	%rbp
	.cfi_restore 6
	.cfi_def_cfa 7, 8
	ret
	.cfi_endproc
.LFE1791:
	.seh_endproc
	.section	.text$_ZN3Log12get_instanceEv,"x"
	.linkonce discard
	.globl	_ZN3Log12get_instanceEv
	.def	_ZN3Log12get_instanceEv;	.scl	2;	.type	32;	.endef
	.seh_proc	_ZN3Log12get_instanceEv
_ZN3Log12get_instanceEv:
.LASANPC1790:
.LFB1790:
	.loc 6 19 17
	.cfi_startproc
	pushq	%rbp
	.seh_pushreg	%rbp
	.cfi_def_cfa_offset 16
	.cfi_offset 6, -16
	pushq	%rsi
	.seh_pushreg	%rsi
	.cfi_def_cfa_offset 24
	.cfi_offset 4, -24
	pushq	%rbx
	.seh_pushreg	%rbx
	.cfi_def_cfa_offset 32
	.cfi_offset 3, -32
	subq	$32, %rsp
	.seh_stackalloc	32
	.cfi_def_cfa_offset 64
	leaq	32(%rsp), %rbp
	.seh_setframe	%rbp, 32
	.cfi_def_cfa 6, 32
	.seh_endprologue
	.loc 6 20 20
	movzbl	_ZGVZN3Log12get_instanceEvE8instance(%rip), %eax
	.loc 6 20 20 is_stmt 0 discriminator 1
	testb	%al, %al
	sete	%al
	testb	%al, %al
	je	.L44
	.loc 6 20 20 discriminator 2
	leaq	_ZGVZN3Log12get_instanceEvE8instance(%rip), %rax
	movq	%rax, %rcx
	call	__cxa_guard_acquire
	.loc 6 20 20 discriminator 3
	testl	%eax, %eax
	setne	%al
	testb	%al, %al
	je	.L44
	.loc 6 20 20 discriminator 4
	movl	$0, %esi
	leaq	_ZZN3Log12get_instanceEvE8instance(%rip), %rax
	movq	%rax, %rcx
.LEHB0:
	call	_ZN3LogC1Ev
.LEHE0:
	.loc 6 20 20 discriminator 7
	leaq	__tcf_ZZN3Log12get_instanceEvE8instance(%rip), %rax
	movq	%rax, %rcx
	call	atexit
	.loc 6 20 20 discriminator 8
	leaq	_ZGVZN3Log12get_instanceEvE8instance(%rip), %rax
	movq	%rax, %rcx
	call	__cxa_guard_release
.L44:
	.loc 6 21 17 is_stmt 1
	leaq	_ZZN3Log12get_instanceEvE8instance(%rip), %rax
	jmp	.L49
.L48:
	.loc 6 20 20 discriminator 6
	movq	%rax, %rbx
	testb	%sil, %sil
	jne	.L47
	.loc 6 20 20 is_stmt 0 discriminator 10
	leaq	_ZGVZN3Log12get_instanceEvE8instance(%rip), %rax
	movq	%rax, %rcx
	call	__cxa_guard_abort
.L47:
	call	__asan_handle_no_return
	movq	%rbx, %rcx
.LEHB1:
	call	_Unwind_Resume
.LEHE1:
.L49:
	.loc 6 22 5 is_stmt 1
	addq	$32, %rsp
	popq	%rbx
	.cfi_restore 3
	popq	%rsi
	.cfi_restore 4
	popq	%rbp
	.cfi_restore 6
	.cfi_def_cfa 7, -8
	ret
	.cfi_endproc
.LFE1790:
	.seh_handler	__gxx_personality_seh0, @unwind, @except
	.seh_handlerdata
.LLSDA1790:
	.byte	0xff
	.byte	0xff
	.byte	0x1
	.uleb128 .LLSDACSE1790-.LLSDACSB1790
.LLSDACSB1790:
	.uleb128 .LEHB0-.LFB1790
	.uleb128 .LEHE0-.LEHB0
	.uleb128 .L48-.LFB1790
	.uleb128 0
	.uleb128 .LEHB1-.LFB1790
	.uleb128 .LEHE1-.LEHB1
	.uleb128 0
	.uleb128 0
.LLSDACSE1790:
	.section	.text$_ZN3Log12get_instanceEv,"x"
	.linkonce discard
	.seh_endproc
	.section .rdata,"dr"
	.align 32
.LC0:
	.ascii "Exception in flush_log_thread: \0"
	.space 32
	.section	.text$_ZN3Log16flush_log_threadEPv,"x"
	.linkonce discard
	.globl	_ZN3Log16flush_log_threadEPv
	.def	_ZN3Log16flush_log_threadEPv;	.scl	2;	.type	32;	.endef
	.seh_proc	_ZN3Log16flush_log_threadEPv
_ZN3Log16flush_log_threadEPv:
.LASANPC1792:
.LFB1792:
	.loc 6 25 18
	.cfi_startproc
	pushq	%rbp
	.seh_pushreg	%rbp
	.cfi_def_cfa_offset 16
	.cfi_offset 6, -16
	pushq	%rbx
	.seh_pushreg	%rbx
	.cfi_def_cfa_offset 24
	.cfi_offset 3, -24
	subq	$56, %rsp
	.seh_stackalloc	56
	.cfi_def_cfa_offset 80
	leaq	48(%rsp), %rbp
	.seh_setframe	%rbp, 48
	.cfi_def_cfa 6, 32
	.seh_endprologue
	movq	%rcx, 32(%rbp)
.LEHB2:
	.loc 6 37 53
	call	_ZN3Log12get_instanceEv
	.loc 6 37 53 is_stmt 0 discriminator 2
	movq	%rax, %rcx
	call	_ZN3Log15async_write_logEv
.LEHE2:
.L56:
	.loc 6 46 16 is_stmt 1
	movl	$0, %eax
	jmp	.L60
.L58:
	.loc 6 40 9
	cmpq	$1, %rdx
	je	.L53
	movq	%rax, %rbx
	call	__asan_handle_no_return
	movq	%rbx, %rcx
.LEHB3:
	call	_Unwind_Resume
.LEHE3:
.L53:
.LBB106:
	.loc 6 40 38 discriminator 2
	movq	%rax, %rcx
	call	__cxa_begin_catch
	.loc 6 40 38 is_stmt 0 discriminator 3
	movq	%rax, -8(%rbp)
	.loc 6 43 74 is_stmt 1
	leaq	.LC0(%rip), %rdx
	movq	.refptr._ZSt4cerr(%rip), %rax
	movq	%rax, %rcx
.LEHB4:
	call	_ZStlsISt11char_traitsIcEERSt13basic_ostreamIcT_ES5_PKc
	movq	%rax, %rbx
	.loc 6 43 73 discriminator 2
	movq	-8(%rbp), %rax
	movq	%rax, %rdx
	shrq	$3, %rdx
	addq	$2147450880, %rdx
	movzbl	(%rdx), %edx
	testb	%dl, %dl
	je	.L54
	movq	%rax, %rcx
	call	__asan_report_load8
.L54:
	movq	-8(%rbp), %rax
	movq	(%rax), %rax
	addq	$16, %rax
	movq	%rax, %rdx
	movq	%rdx, %rcx
	shrq	$3, %rcx
	addq	$2147450880, %rcx
	movzbl	(%rcx), %ecx
	testb	%cl, %cl
	je	.L55
	movq	%rdx, %rcx
	call	__asan_report_load8
.L55:
	movq	(%rax), %rdx
	.loc 6 43 74 discriminator 2
	movq	-8(%rbp), %rax
	movq	%rax, %rcx
	call	*%rdx
.LVL0:
	.loc 6 43 74 is_stmt 0 discriminator 3
	movq	%rax, %rdx
	movq	%rbx, %rcx
	call	_ZStlsISt11char_traitsIcEERSt13basic_ostreamIcT_ES5_PKc
	movq	%rax, %rcx
	.loc 6 43 84 is_stmt 1 discriminator 5
	movq	.refptr._ZSt4endlIcSt11char_traitsIcEERSt13basic_ostreamIT_T0_ES6_(%rip), %rax
	movq	%rax, %rdx
	call	_ZNSolsEPFRSoS_E
.LEHE4:
	.loc 6 44 13
	call	__cxa_end_catch
	jmp	.L56
.L59:
	movq	%rax, %rbx
	call	__cxa_end_catch
	call	__asan_handle_no_return
	movq	%rbx, %rcx
.LEHB5:
	call	_Unwind_Resume
.LEHE5:
.L60:
.LBE106:
	.loc 6 47 5
	addq	$56, %rsp
	popq	%rbx
	.cfi_restore 3
	popq	%rbp
	.cfi_restore 6
	.cfi_def_cfa 7, -40
	ret
	.cfi_endproc
.LFE1792:
	.seh_handler	__gxx_personality_seh0, @unwind, @except
	.seh_handlerdata
	.align 4
.LLSDA1792:
	.byte	0xff
	.byte	0x9b
	.uleb128 .LLSDATT1792-.LLSDATTD1792
.LLSDATTD1792:
	.byte	0x1
	.uleb128 .LLSDACSE1792-.LLSDACSB1792
.LLSDACSB1792:
	.uleb128 .LEHB2-.LFB1792
	.uleb128 .LEHE2-.LEHB2
	.uleb128 .L58-.LFB1792
	.uleb128 0x1
	.uleb128 .LEHB3-.LFB1792
	.uleb128 .LEHE3-.LEHB3
	.uleb128 0
	.uleb128 0
	.uleb128 .LEHB4-.LFB1792
	.uleb128 .LEHE4-.LEHB4
	.uleb128 .L59-.LFB1792
	.uleb128 0
	.uleb128 .LEHB5-.LFB1792
	.uleb128 .LEHE5-.LEHB5
	.uleb128 0
	.uleb128 0
.LLSDACSE1792:
	.byte	0x1
	.byte	0
	.align 4
	.long	.LDFCM0-.
.LLSDATT1792:
	.section	.text$_ZN3Log16flush_log_threadEPv,"x"
	.linkonce discard
	.seh_endproc
	.section .rdata,"dr"
	.align 8
.LC1:
	.ascii "2 32 8 7 lock:89 64 32 13 single_log:85\0"
	.section	.text$_ZN3Log15async_write_logEv,"x"
	.linkonce discard
	.align 2
	.globl	_ZN3Log15async_write_logEv
	.def	_ZN3Log15async_write_logEv;	.scl	2;	.type	32;	.endef
	.seh_proc	_ZN3Log15async_write_logEv
_ZN3Log15async_write_logEv:
.LASANPC1794:
.LFB1794:
	.loc 6 83 10
	.cfi_startproc
	pushq	%rbp
	.seh_pushreg	%rbp
	.cfi_def_cfa_offset 16
	.cfi_offset 6, -16
	pushq	%r13
	.seh_pushreg	%r13
	.cfi_def_cfa_offset 24
	.cfi_offset 13, -24
	pushq	%r12
	.seh_pushreg	%r12
	.cfi_def_cfa_offset 32
	.cfi_offset 12, -32
	pushq	%rdi
	.seh_pushreg	%rdi
	.cfi_def_cfa_offset 40
	.cfi_offset 5, -40
	pushq	%rsi
	.seh_pushreg	%rsi
	.cfi_def_cfa_offset 48
	.cfi_offset 4, -48
	pushq	%rbx
	.seh_pushreg	%rbx
	.cfi_def_cfa_offset 56
	.cfi_offset 3, -56
	subq	$168, %rsp
	.seh_stackalloc	168
	.cfi_def_cfa_offset 224
	leaq	160(%rsp), %rbp
	.seh_setframe	%rbp, 160
	.cfi_def_cfa 6, 64
	.seh_endprologue
	movq	%rcx, 64(%rbp)
	leaq	-128(%rbp), %rsi
	movq	%rsi, %r13
	movq	.refptr.__asan_option_detect_stack_use_after_return(%rip), %rax
	cmpl	$0, (%rax)
	je	.L61
	movl	$128, %ecx
	call	__asan_stack_malloc_1
	testq	%rax, %rax
	je	.L61
	movq	%rax, %rsi
.L61:
	leaq	128(%rsi), %rax
	movq	%rax, %rbx
	movq	$1102416563, (%rsi)
	leaq	.LC1(%rip), %rax
	movq	%rax, 8(%rsi)
	leaq	.LASANPC1794(%rip), %rax
	movq	%rax, 16(%rsi)
	movq	%rsi, %rdi
	shrq	$3, %rdi
	movl	$-235802127, 2147450880(%rdi)
	movl	$-218959360, 2147450884(%rdi)
	movl	$-202116109, 2147450892(%rdi)
	.loc 6 85 16 discriminator 1
	leaq	-64(%rbx), %rax
	movq	%rax, %rcx
	call	_ZNSt7__cxx1112basic_stringIcSt11char_traitsIcESaIcEEC1Ev
	.loc 6 88 9
	jmp	.L65
.L68:
.LBB107:
	.loc 6 89 26
	leaq	-96(%rbx), %rax
	shrq	$3, %rax
	addq	$2147450880, %rax
	movb	$0, (%rax)
	.loc 6 89 31 discriminator 1
	movq	64(%rbp), %rax
	leaq	320(%rax), %rdx
	.loc 6 89 38 discriminator 1
	leaq	-96(%rbx), %rax
	movq	%rax, %rcx
.LEHB6:
	call	_ZN12locker_guardC1ER6locker
.LEHE6:
	.loc 6 90 18
	movq	64(%rbp), %rax
	addq	$288, %rax
	movq	%rax, %rdx
	shrq	$3, %rdx
	addq	$2147450880, %rdx
	movzbl	(%rdx), %edx
	testb	%dl, %dl
	je	.L66
	movq	%rax, %rcx
	call	__asan_report_load8
.L66:
	movq	64(%rbp), %rax
	movq	288(%rax), %r12
	leaq	-64(%rbx), %rax
	movq	%rax, %rcx
	call	_ZNKSt7__cxx1112basic_stringIcSt11char_traitsIcESaIcEE5c_strEv
	.loc 6 90 18 is_stmt 0 discriminator 1
	movq	%r12, %rdx
	movq	%rax, %rcx
.LEHB7:
	call	fputs
.LEHE7:
	.loc 6 91 9 is_stmt 1
	leaq	-96(%rbx), %rax
	movq	%rax, %rcx
	call	_ZN12locker_guardD1Ev
	leaq	-96(%rbx), %rax
	shrq	$3, %rax
	addq	$2147450880, %rax
	movb	$-8, (%rax)
.L65:
.LBE107:
	.loc 6 88 16
	movq	64(%rbp), %rax
	addq	$304, %rax
	movq	%rax, %rdx
	shrq	$3, %rdx
	addq	$2147450880, %rdx
	movzbl	(%rdx), %edx
	testb	%dl, %dl
	je	.L67
	movq	%rax, %rcx
	call	__asan_report_load8
.L67:
	movq	64(%rbp), %rax
	movq	304(%rax), %rax
	.loc 6 88 32
	leaq	-64(%rbx), %rdx
	movq	%rax, %rcx
.LEHB8:
	call	_ZN11block_queueINSt7__cxx1112basic_stringIcSt11char_traitsIcESaIcEEEE3popERS5_
.LEHE8:
	.loc 6 88 32 is_stmt 0 discriminator 2
	testb	%al, %al
	jne	.L68
	.loc 6 92 5 is_stmt 1
	leaq	-64(%rbx), %rax
	movq	%rax, %rcx
	call	_ZNSt7__cxx1112basic_stringIcSt11char_traitsIcESaIcEED1Ev
	.loc 6 83 10
	cmpq	%rsi, %r13
	je	.L62
	jmp	.L75
.L73:
.LBB108:
	.loc 6 91 9
	movq	%rax, %rsi
	leaq	-96(%rbx), %rax
	movq	%rax, %rcx
	call	_ZN12locker_guardD1Ev
	movq	%rsi, %rax
	jmp	.L70
.L72:
.L70:
	leaq	-96(%rbx), %rdx
	shrq	$3, %rdx
	addq	$2147450880, %rdx
	movb	$-8, (%rdx)
	movq	%rax, %rsi
	jmp	.L71
.L74:
.LBE108:
	.loc 6 92 5
	movq	%rax, %rsi
.L71:
	leaq	-64(%rbx), %rax
	movq	%rax, %rcx
	call	_ZNSt7__cxx1112basic_stringIcSt11char_traitsIcESaIcEED1Ev
	movq	%rsi, %rbx
	call	__asan_handle_no_return
	movq	%rbx, %rcx
.LEHB9:
	call	_Unwind_Resume
.LEHE9:
.L75:
	.loc 6 83 10
	movq	$1172321806, (%rsi)
	movl	$-168430091, %eax
	movd	%eax, %xmm1
	pshufd	$0, %xmm1, %xmm0
	movups	%xmm0, 2147450880(%rdi)
	movq	120(%rsi), %rax
	movb	$0, (%rax)
	jmp	.L63
.L62:
	movq	$0, 2147450880(%rdi)
	movl	$0, 2147450892(%rdi)
.L63:
	.loc 6 92 5
	addq	$168, %rsp
	popq	%rbx
	.cfi_restore 3
	popq	%rsi
	.cfi_restore 4
	popq	%rdi
	.cfi_restore 5
	popq	%r12
	.cfi_restore 12
	popq	%r13
	.cfi_restore 13
	popq	%rbp
	.cfi_restore 6
	.cfi_def_cfa 7, -120
	ret
	.cfi_endproc
.LFE1794:
	.seh_handler	__gxx_personality_seh0, @unwind, @except
	.seh_handlerdata
.LLSDA1794:
	.byte	0xff
	.byte	0xff
	.byte	0x1
	.uleb128 .LLSDACSE1794-.LLSDACSB1794
.LLSDACSB1794:
	.uleb128 .LEHB6-.LFB1794
	.uleb128 .LEHE6-.LEHB6
	.uleb128 .L72-.LFB1794
	.uleb128 0
	.uleb128 .LEHB7-.LFB1794
	.uleb128 .LEHE7-.LEHB7
	.uleb128 .L73-.LFB1794
	.uleb128 0
	.uleb128 .LEHB8-.LFB1794
	.uleb128 .LEHE8-.LEHB8
	.uleb128 .L74-.LFB1794
	.uleb128 0
	.uleb128 .LEHB9-.LFB1794
	.uleb128 .LEHE9-.LEHB9
	.uleb128 0
	.uleb128 0
.LLSDACSE1794:
	.section	.text$_ZN3Log15async_write_logEv,"x"
	.linkonce discard
	.seh_endproc
	.text
	.align 2
	.globl	_ZN3LogC2Ev
	.def	_ZN3LogC2Ev;	.scl	2;	.type	32;	.endef
	.seh_proc	_ZN3LogC2Ev
_ZN3LogC2Ev:
.LASANPC1796:
.LFB1796:
	.file 7 "log/log.cpp"
	.loc 7 10 1
	.cfi_startproc
	pushq	%rbp
	.seh_pushreg	%rbp
	.cfi_def_cfa_offset 16
	.cfi_offset 6, -16
	movq	%rsp, %rbp
	.seh_setframe	%rbp, 0
	.cfi_def_cfa_register 6
	subq	$32, %rsp
	.seh_stackalloc	32
	.seh_endprologue
	movq	%rcx, 16(%rbp)
.LBB109:
	.loc 7 10 10
	leaq	16+_ZTV3Log(%rip), %rcx
	movq	16(%rbp), %rax
	movq	%rax, %rdx
	shrq	$3, %rdx
	addq	$2147450880, %rdx
	movzbl	(%rdx), %edx
	testb	%dl, %dl
	je	.L77
	movq	%rax, %rcx
	call	__asan_report_store8
.L77:
	movq	16(%rbp), %rax
	movq	%rcx, (%rax)
	movq	16(%rbp), %rax
	addq	$320, %rax
	movq	%rax, %rcx
	call	_ZN6lockerC1Ev
	.loc 7 11 13
	movq	16(%rbp), %rax
	addq	$272, %rax
	movq	%rax, %rdx
	shrq	$3, %rdx
	addq	$2147450880, %rdx
	movzbl	(%rdx), %edx
	testb	%dl, %dl
	je	.L78
	movq	%rax, %rcx
	call	__asan_report_store8
.L78:
	movq	16(%rbp), %rax
	movq	$0, 272(%rax)
	.loc 7 12 16
	movq	16(%rbp), %rax
	addq	$312, %rax
	movq	%rax, %rdx
	movq	%rdx, %rax
	shrq	$3, %rax
	addq	$2147450880, %rax
	movzbl	(%rax), %eax
	testb	%al, %al
	setne	%cl
	testb	%al, %al
	setle	%al
	andl	%ecx, %eax
	testb	%al, %al
	je	.L79
	movq	%rdx, %rcx
	call	__asan_report_store1
.L79:
	movq	16(%rbp), %rax
	movb	$0, 312(%rax)
.LBE109:
	.loc 7 13 1
	nop
	addq	$32, %rsp
	popq	%rbp
	.cfi_restore 6
	.cfi_def_cfa 7, 8
	ret
	.cfi_endproc
.LFE1796:
	.seh_endproc
	.globl	_ZN3LogC1Ev
	.def	_ZN3LogC1Ev;	.scl	2;	.type	32;	.endef
	.set	_ZN3LogC1Ev,_ZN3LogC2Ev
	.align 2
	.globl	_ZN3LogD2Ev
	.def	_ZN3LogD2Ev;	.scl	2;	.type	32;	.endef
	.seh_proc	_ZN3LogD2Ev
_ZN3LogD2Ev:
.LASANPC1799:
.LFB1799:
	.loc 7 15 1
	.cfi_startproc
	pushq	%rbp
	.seh_pushreg	%rbp
	.cfi_def_cfa_offset 16
	.cfi_offset 6, -16
	pushq	%rbx
	.seh_pushreg	%rbx
	.cfi_def_cfa_offset 24
	.cfi_offset 3, -24
	subq	$40, %rsp
	.seh_stackalloc	40
	.cfi_def_cfa_offset 64
	leaq	32(%rsp), %rbp
	.seh_setframe	%rbp, 32
	.cfi_def_cfa 6, 32
	.seh_endprologue
	movq	%rcx, 32(%rbp)
.LBB110:
	.loc 7 15 11
	leaq	16+_ZTV3Log(%rip), %rcx
	movq	32(%rbp), %rax
	movq	%rax, %rdx
	shrq	$3, %rdx
	addq	$2147450880, %rdx
	movzbl	(%rdx), %edx
	testb	%dl, %dl
	je	.L81
	movq	%rax, %rcx
	call	__asan_report_store8
.L81:
	movq	32(%rbp), %rax
	movq	%rcx, (%rax)
	.loc 7 17 9
	movq	32(%rbp), %rax
	addq	$288, %rax
	movq	%rax, %rdx
	shrq	$3, %rdx
	addq	$2147450880, %rdx
	movzbl	(%rdx), %edx
	testb	%dl, %dl
	je	.L82
	movq	%rax, %rcx
	call	__asan_report_load8
.L82:
	movq	32(%rbp), %rax
	movq	288(%rax), %rax
	.loc 7 17 5
	testq	%rax, %rax
	je	.L83
	.loc 7 19 15
	movq	32(%rbp), %rax
	movq	288(%rax), %rax
	movq	%rax, %rcx
	call	fflush
	.loc 7 20 15
	movq	32(%rbp), %rax
	addq	$288, %rax
	movq	%rax, %rdx
	shrq	$3, %rdx
	addq	$2147450880, %rdx
	movzbl	(%rdx), %edx
	testb	%dl, %dl
	je	.L84
	movq	%rax, %rcx
	call	__asan_report_load8
.L84:
	movq	32(%rbp), %rax
	movq	288(%rax), %rax
	movq	%rax, %rcx
	call	fclose
.L83:
	.loc 7 23 9
	movq	32(%rbp), %rax
	addq	$312, %rax
	movq	%rax, %rdx
	movq	%rdx, %rax
	shrq	$3, %rax
	addq	$2147450880, %rax
	movzbl	(%rax), %eax
	testb	%al, %al
	setne	%cl
	testb	%al, %al
	setle	%al
	andl	%ecx, %eax
	testb	%al, %al
	je	.L85
	movq	%rdx, %rcx
	call	__asan_report_load1
.L85:
	movq	32(%rbp), %rax
	movzbl	312(%rax), %eax
	.loc 7 23 5
	testb	%al, %al
	je	.L86
	.loc 7 25 9
	movq	32(%rbp), %rax
	addq	$304, %rax
	movq	%rax, %rdx
	shrq	$3, %rdx
	addq	$2147450880, %rdx
	movzbl	(%rdx), %edx
	testb	%dl, %dl
	je	.L87
	movq	%rax, %rcx
	call	__asan_report_load8
.L87:
	movq	32(%rbp), %rax
	movq	304(%rax), %rbx
	testq	%rbx, %rbx
	je	.L86
	.loc 7 25 16 discriminator 1
	movq	%rbx, %rcx
	call	_ZN11block_queueINSt7__cxx1112basic_stringIcSt11char_traitsIcESaIcEEEED1Ev
	.loc 7 25 16 is_stmt 0 discriminator 2
	movq	%rbx, %rcx
	call	_ZdlPv
.L86:
	.loc 7 28 14 is_stmt 1
	movq	32(%rbp), %rax
	addq	$296, %rax
	movq	%rax, %rdx
	shrq	$3, %rdx
	addq	$2147450880, %rdx
	movzbl	(%rdx), %edx
	testb	%dl, %dl
	je	.L88
	movq	%rax, %rcx
	call	__asan_report_load8
.L88:
	movq	32(%rbp), %rax
	movq	296(%rax), %rax
	.loc 7 28 5
	testq	%rax, %rax
	je	.L89
	.loc 7 28 14 discriminator 1
	movq	32(%rbp), %rax
	movq	296(%rax), %rax
	movq	%rax, %rcx
	call	_ZdaPv
.L89:
	.loc 7 29 1
	movq	32(%rbp), %rax
	addq	$320, %rax
	movq	%rax, %rcx
	call	_ZN6lockerD1Ev
.LBE110:
	nop
	addq	$40, %rsp
	popq	%rbx
	.cfi_restore 3
	popq	%rbp
	.cfi_restore 6
	.cfi_def_cfa 7, -24
	ret
	.cfi_endproc
.LFE1799:
	.seh_handler	__gxx_personality_seh0, @unwind, @except
	.seh_handlerdata
.LLSDA1799:
	.byte	0xff
	.byte	0xff
	.byte	0x1
	.uleb128 .LLSDACSE1799-.LLSDACSB1799
.LLSDACSB1799:
.LLSDACSE1799:
	.text
	.seh_endproc
	.globl	_ZN3LogD1Ev
	.def	_ZN3LogD1Ev;	.scl	2;	.type	32;	.endef
	.set	_ZN3LogD1Ev,_ZN3LogD2Ev
	.align 2
	.globl	_ZN3LogD0Ev
	.def	_ZN3LogD0Ev;	.scl	2;	.type	32;	.endef
	.seh_proc	_ZN3LogD0Ev
_ZN3LogD0Ev:
.LASANPC1801:
.LFB1801:
	.loc 7 15 1
	.cfi_startproc
	pushq	%rbp
	.seh_pushreg	%rbp
	.cfi_def_cfa_offset 16
	.cfi_offset 6, -16
	movq	%rsp, %rbp
	.seh_setframe	%rbp, 0
	.cfi_def_cfa_register 6
	subq	$32, %rsp
	.seh_stackalloc	32
	.seh_endprologue
	movq	%rcx, 16(%rbp)
	.loc 7 29 1
	movq	16(%rbp), %rax
	movq	%rax, %rcx
	call	_ZN3LogD1Ev
	.loc 7 29 1 is_stmt 0 discriminator 1
	movq	16(%rbp), %rax
	movq	%rax, %rcx
	call	_ZdlPv
	nop
	.loc 7 29 1
	addq	$32, %rsp
	popq	%rbp
	.cfi_restore 6
	.cfi_def_cfa 7, 8
	ret
	.cfi_endproc
.LFE1801:
	.seh_endproc
	.section .rdata,"dr"
	.align 8
.LC3:
	.ascii "4 48 8 6 tid:41 80 8 4 t:67 112 36 8 my_tm:68 192 256 16 log_full_name:77\0"
	.align 32
.LC4:
	.ascii "Failed to create log thread.\0"
	.space 35
	.align 32
.LC5:
	.ascii "Failed to get local time.\0"
	.space 38
	.align 32
.LC6:
	.ascii "%d_%02d_%02d_%s\0"
	.space 48
	.align 32
.LC7:
	.ascii "%s%d_%02d_%02d_%s\0"
	.space 46
	.align 32
.LC8:
	.ascii "a\0"
	.space 62
	.align 32
.LC9:
	.ascii "Failed to open log file: \0"
	.space 38
	.text
	.align 2
	.globl	_ZN3Log4initEPKciiii
	.def	_ZN3Log4initEPKciiii;	.scl	2;	.type	32;	.endef
	.seh_proc	_ZN3Log4initEPKciiii
_ZN3Log4initEPKciiii:
.LASANPC1802:
.LFB1802:
	.loc 7 32 1 is_stmt 1
	.cfi_startproc
	pushq	%rbp
	.seh_pushreg	%rbp
	.cfi_def_cfa_offset 16
	.cfi_offset 6, -16
	pushq	%r15
	.seh_pushreg	%r15
	.cfi_def_cfa_offset 24
	.cfi_offset 15, -24
	pushq	%r14
	.seh_pushreg	%r14
	.cfi_def_cfa_offset 32
	.cfi_offset 14, -32
	pushq	%r13
	.seh_pushreg	%r13
	.cfi_def_cfa_offset 40
	.cfi_offset 13, -40
	pushq	%r12
	.seh_pushreg	%r12
	.cfi_def_cfa_offset 48
	.cfi_offset 12, -48
	pushq	%rdi
	.seh_pushreg	%rdi
	.cfi_def_cfa_offset 56
	.cfi_offset 5, -56
	pushq	%rsi
	.seh_pushreg	%rsi
	.cfi_def_cfa_offset 64
	.cfi_offset 4, -64
	pushq	%rbx
	.seh_pushreg	%rbx
	.cfi_def_cfa_offset 72
	.cfi_offset 3, -72
	subq	$600, %rsp
	.seh_stackalloc	600
	.cfi_def_cfa_offset 672
	leaq	128(%rsp), %rbp
	.seh_setframe	%rbp, 128
	.cfi_def_cfa 6, 544
	.seh_endprologue
	movq	%rcx, 544(%rbp)
	movq	%rdx, 552(%rbp)
	movl	%r8d, 560(%rbp)
	movl	%r9d, 568(%rbp)
	leaq	-48(%rbp), %rdi
	movq	%rdi, %r15
	movq	.refptr.__asan_option_detect_stack_use_after_return(%rip), %rax
	cmpl	$0, (%rax)
	je	.L91
	movl	$512, %ecx
	call	__asan_stack_malloc_3
	testq	%rax, %rax
	je	.L91
	movq	%rax, %rdi
.L91:
	leaq	512(%rdi), %rax
	movq	%rax, %rbx
	movq	$1102416563, (%rdi)
	leaq	.LC3(%rip), %rax
	movq	%rax, 8(%rdi)
	leaq	.LASANPC1802(%rip), %rax
	movq	%rax, 16(%rdi)
	movq	%rdi, %rsi
	shrq	$3, %rsi
	movl	$-235802127, 2147450880(%rsi)
	movl	$-234819087, 2147450884(%rsi)
	movl	$-234818830, 2147450888(%rsi)
	movl	$62194, 2147450892(%rsi)
	movl	$-234618880, 2147450896(%rsi)
	movl	$-218959118, 2147450900(%rsi)
	movl	$-202116109, 2147450936(%rsi)
	movl	$-202116109, 2147450940(%rsi)
.LBB111:
	.loc 7 37 5
	cmpl	$0, 584(%rbp)
	jle	.L95
.LBB112:
	.loc 7 39 20
	movq	544(%rbp), %rax
	addq	$312, %rax
	movq	%rax, %rdx
	movq	%rdx, %rax
	shrq	$3, %rax
	addq	$2147450880, %rax
	movzbl	(%rax), %eax
	testb	%al, %al
	setne	%cl
	testb	%al, %al
	setle	%al
	andl	%ecx, %eax
	testb	%al, %al
	je	.L96
	movq	%rdx, %rcx
	call	__asan_report_store1
.L96:
	movq	544(%rbp), %rax
	movb	$1, 312(%rax)
	.loc 7 40 61
	movl	$40, %ecx
.LEHB10:
	call	_Znwy
.LEHE10:
	movq	%rax, %r12
	.loc 7 40 21 discriminator 2
	movl	$1, %r14d
	.loc 7 40 61 discriminator 2
	movl	584(%rbp), %eax
	movl	%eax, %edx
	movq	%r12, %rcx
.LEHB11:
	call	_ZN11block_queueINSt7__cxx1112basic_stringIcSt11char_traitsIcESaIcEEEEC1Ei
.LEHE11:
	.loc 7 40 21 discriminator 5
	movl	$0, %ecx
	movq	544(%rbp), %rax
	addq	$304, %rax
	movq	%rax, %rdx
	shrq	$3, %rdx
	addq	$2147450880, %rdx
	movzbl	(%rdx), %edx
	testb	%dl, %dl
	je	.L97
	movq	%rax, %rcx
	call	__asan_report_store8
.L97:
	movq	544(%rbp), %rax
	movq	%r12, 304(%rax)
	testb	%cl, %cl
	je	.L140
	.loc 7 40 61 discriminator 6
	movq	%r12, %rcx
	call	_ZdlPv
.L140:
	.loc 7 40 21
	nop
	.loc 7 43 27
	leaq	_ZN3Log16flush_log_threadEPv(%rip), %rax
	movq	%rax, %rdx
	leaq	-464(%rbx), %rax
	movl	$0, %r9d
	movq	%rdx, %r8
	movl	$0, %edx
	movq	%rax, %rcx
.LEHB12:
	call	pthread_create
	.loc 7 43 64 discriminator 2
	testl	%eax, %eax
	setne	%al
	.loc 7 43 9 discriminator 2
	testb	%al, %al
	je	.L99
	.loc 7 46 26
	leaq	.LC4(%rip), %rdx
	movq	.refptr._ZSt4cerr(%rip), %rax
	movq	%rax, %rcx
	call	_ZStlsISt11char_traitsIcEERSt13basic_ostreamIcT_ES5_PKc
	movq	%rax, %rcx
	.loc 7 46 65 discriminator 2
	movq	.refptr._ZSt4endlIcSt11char_traitsIcEERSt13basic_ostreamIT_T0_ES6_(%rip), %rax
	movq	%rax, %rdx
	call	_ZNSolsEPFRSoS_E
	.loc 7 47 13
	movq	544(%rbp), %rax
	addq	$304, %rax
	movq	%rax, %rdx
	shrq	$3, %rdx
	addq	$2147450880, %rdx
	movzbl	(%rdx), %edx
	testb	%dl, %dl
	je	.L100
	movq	%rax, %rcx
	call	__asan_report_load8
.L100:
	movq	544(%rbp), %rax
	movq	304(%rax), %r12
	testq	%r12, %r12
	je	.L101
	.loc 7 47 20 discriminator 1
	movq	%r12, %rcx
	call	_ZN11block_queueINSt7__cxx1112basic_stringIcSt11char_traitsIcESaIcEEEED1Ev
	.loc 7 47 20 is_stmt 0 discriminator 2
	movq	%r12, %rcx
	call	_ZdlPv
.L101:
	.loc 7 48 20 is_stmt 1
	movl	$0, %r13d
	movl	$0, %edx
	jmp	.L102
.L99:
	.loc 7 50 23
	leaq	-464(%rbx), %rax
	movq	%rax, %rdx
	shrq	$3, %rdx
	addq	$2147450880, %rdx
	movzbl	(%rdx), %edx
	testb	%dl, %dl
	je	.L103
	movq	%rax, %rcx
	call	__asan_report_load8
.L103:
	movq	-464(%rbx), %rax
	movq	%rax, %rcx
	call	pthread_detach
	movl	$1, %edx
.L102:
	leaq	-464(%rbx), %rax
	shrq	$3, %rax
	addq	$2147450880, %rax
	movb	$-8, (%rax)
	cmpl	$1, %edx
	jne	.L135
.L95:
.LBE112:
.LBE111:
	.loc 7 61 17
	movq	544(%rbp), %rax
	addq	$328, %rax
	movq	%rax, %rdx
	movq	%rdx, %rax
	shrq	$3, %rax
	addq	$2147450880, %rax
	movzbl	(%rax), %eax
	testb	%al, %al
	setne	%cl
	cmpb	$3, %al
	setle	%al
	andl	%ecx, %eax
	testb	%al, %al
	je	.L105
	movq	%rdx, %rcx
	call	__asan_report_store4
.L105:
	movq	544(%rbp), %rax
	movl	560(%rbp), %edx
	movl	%edx, 328(%rax)
	.loc 7 62 20
	movq	544(%rbp), %rax
	addq	$268, %rax
	movq	%rax, %rdx
	shrq	$3, %rdx
	addq	$2147450880, %rdx
	movzbl	(%rdx), %edx
	testb	%dl, %dl
	setne	%r8b
	movq	%rax, %rcx
	andl	$7, %ecx
	addl	$3, %ecx
	cmpb	%dl, %cl
	setge	%dl
	andl	%r8d, %edx
	testb	%dl, %dl
	je	.L106
	movq	%rax, %rcx
	call	__asan_report_store4
.L106:
	movq	544(%rbp), %rax
	movl	568(%rbp), %edx
	movl	%edx, 268(%rax)
	.loc 7 63 22
	movq	544(%rbp), %rax
	movl	268(%rax), %eax
	cltq
	.loc 7 63 36
	movq	%rax, %rcx
	call	_Znay
	movq	%rax, %rcx
	.loc 7 63 11 discriminator 2
	movq	544(%rbp), %rax
	addq	$296, %rax
	movq	%rax, %rdx
	shrq	$3, %rdx
	addq	$2147450880, %rdx
	movzbl	(%rdx), %edx
	testb	%dl, %dl
	je	.L107
	movq	%rax, %rcx
	call	__asan_report_store8
.L107:
	movq	544(%rbp), %rax
	movq	%rcx, 296(%rax)
	.loc 7 64 25
	movq	544(%rbp), %rax
	addq	$268, %rax
	movq	%rax, %rdx
	shrq	$3, %rdx
	addq	$2147450880, %rdx
	movzbl	(%rdx), %edx
	testb	%dl, %dl
	setne	%r8b
	movq	%rax, %rcx
	andl	$7, %ecx
	addl	$3, %ecx
	cmpb	%dl, %cl
	setge	%dl
	andl	%r8d, %edx
	testb	%dl, %dl
	je	.L108
	movq	%rax, %rcx
	call	__asan_report_load4
.L108:
	movq	544(%rbp), %rax
	movl	268(%rax), %eax
	.loc 7 64 11
	movslq	%eax, %rdx
	.loc 7 64 12
	movq	544(%rbp), %rax
	movq	296(%rax), %rax
	.loc 7 64 11
	movq	%rdx, %r8
	movl	$0, %edx
	movq	%rax, %rcx
	call	memset
	.loc 7 65 19
	movq	544(%rbp), %rax
	addq	$264, %rax
	movq	%rax, %rdx
	movq	%rdx, %rax
	shrq	$3, %rax
	addq	$2147450880, %rax
	movzbl	(%rax), %eax
	testb	%al, %al
	setne	%cl
	cmpb	$3, %al
	setle	%al
	andl	%ecx, %eax
	testb	%al, %al
	je	.L109
	movq	%rdx, %rcx
	call	__asan_report_store4
.L109:
	movq	544(%rbp), %rax
	movl	576(%rbp), %edx
	movl	%edx, 264(%rax)
	.loc 7 67 12
	leaq	-432(%rbx), %rax
	shrq	$3, %rax
	addq	$2147450880, %rax
	movb	$0, (%rax)
	.loc 7 67 20 discriminator 1
	movl	$0, %ecx
	call	_time64
	.loc 7 67 25 discriminator 2
	leaq	-432(%rbx), %rdx
	movq	%rdx, %rcx
	shrq	$3, %rcx
	addq	$2147450880, %rcx
	movzbl	(%rcx), %ecx
	testb	%cl, %cl
	je	.L110
	movq	%rdx, %rcx
	call	__asan_report_store8
.L110:
	movq	%rax, -432(%rbx)
	.loc 7 68 15
	leaq	-400(%rbx), %rax
	shrq	$3, %rax
	addq	$2147450880, %rax
	movl	$0, (%rax)
	movb	$4, 4(%rax)
	.loc 7 69 20
	leaq	-400(%rbx), %rdx
	leaq	-432(%rbx), %rax
	movq	%rax, %rcx
	call	_ZL11localtime_rPKxP2tm
	.loc 7 69 33 discriminator 2
	testq	%rax, %rax
	sete	%al
	.loc 7 69 5 discriminator 2
	testb	%al, %al
	je	.L111
	.loc 7 70 22
	leaq	.LC5(%rip), %rdx
	movq	.refptr._ZSt4cerr(%rip), %rax
	movq	%rax, %rcx
	call	_ZStlsISt11char_traitsIcEERSt13basic_ostreamIcT_ES5_PKc
	movq	%rax, %rcx
	.loc 7 70 58 discriminator 2
	movq	.refptr._ZSt4endlIcSt11char_traitsIcEERSt13basic_ostreamIT_T0_ES6_(%rip), %rax
	movq	%rax, %rdx
	call	_ZNSolsEPFRSoS_E
	.loc 7 71 18
	movq	544(%rbp), %rax
	addq	$296, %rax
	movq	%rax, %rdx
	shrq	$3, %rdx
	addq	$2147450880, %rdx
	movzbl	(%rdx), %edx
	testb	%dl, %dl
	je	.L112
	movq	%rax, %rcx
	call	__asan_report_load8
.L112:
	movq	544(%rbp), %rax
	movq	296(%rax), %rax
	.loc 7 71 9
	testq	%rax, %rax
	je	.L113
	.loc 7 71 18 discriminator 1
	movq	544(%rbp), %rax
	movq	296(%rax), %rax
	movq	%rax, %rcx
	call	_ZdaPv
.L113:
	.loc 7 72 13
	movq	544(%rbp), %rax
	addq	$312, %rax
	movq	%rax, %rdx
	movq	%rdx, %rax
	shrq	$3, %rax
	addq	$2147450880, %rax
	movzbl	(%rax), %eax
	testb	%al, %al
	setne	%cl
	testb	%al, %al
	setle	%al
	andl	%ecx, %eax
	testb	%al, %al
	je	.L114
	movq	%rdx, %rcx
	call	__asan_report_load1
.L114:
	movq	544(%rbp), %rax
	movzbl	312(%rax), %eax
	.loc 7 72 9
	testb	%al, %al
	je	.L115
	.loc 7 72 25 discriminator 1
	movq	544(%rbp), %rax
	addq	$304, %rax
	movq	%rax, %rdx
	shrq	$3, %rdx
	addq	$2147450880, %rdx
	movzbl	(%rdx), %edx
	testb	%dl, %dl
	je	.L116
	movq	%rax, %rcx
	call	__asan_report_load8
.L116:
	movq	544(%rbp), %rax
	movq	304(%rax), %rbx
	testq	%rbx, %rbx
	je	.L115
	.loc 7 72 32 discriminator 2
	movq	%rbx, %rcx
	call	_ZN11block_queueINSt7__cxx1112basic_stringIcSt11char_traitsIcESaIcEEEED1Ev
	.loc 7 72 32 is_stmt 0 discriminator 3
	movq	%rbx, %rcx
	call	_ZdlPv
.L115:
	.loc 7 73 16 is_stmt 1
	movl	$0, %r13d
	jmp	.L135
.L111:
	.loc 7 76 28
	movq	552(%rbp), %rax
	movl	$47, %edx
	movq	%rax, %rcx
	call	strrchr
	movq	%rax, -56(%rbp)
	.loc 7 77 10
	leaq	-320(%rbx), %rax
	shrq	$3, %rax
	addq	$2147450880, %rax
	movl	$0, (%rax)
	movl	$0, 4(%rax)
	movl	$0, 8(%rax)
	movl	$0, 12(%rax)
	movl	$0, 16(%rax)
	movl	$0, 20(%rax)
	movl	$0, 24(%rax)
	movl	$0, 28(%rax)
	.loc 7 77 10 is_stmt 0 discriminator 1
	leaq	-320(%rbx), %rax
	movq	%rax, %rdx
	shrq	$3, %rdx
	addq	$2147450880, %rdx
	movzbl	(%rdx), %edx
	testb	%dl, %dl
	setne	%cl
	testb	%dl, %dl
	setle	%dl
	andl	%edx, %ecx
	movl	%ecx, %r8d
	movl	$256, %edx
	subq	$1, %rdx
	leaq	(%rax,%rdx), %rcx
	movq	%rcx, %rdx
	shrq	$3, %rdx
	addq	$2147450880, %rdx
	movzbl	(%rdx), %edx
	testb	%dl, %dl
	setne	%r9b
	andl	$7, %ecx
	cmpb	%dl, %cl
	setge	%dl
	andl	%r9d, %edx
	orl	%r8d, %edx
	testb	%dl, %dl
	je	.L117
	movl	$256, %edx
	movq	%rax, %rcx
	call	__asan_report_store_n
.L117:
	movq	$0, -320(%rbx)
	movq	$0, -312(%rbx)
	movq	$0, -304(%rbx)
	movq	$0, -296(%rbx)
	movq	$0, -288(%rbx)
	movq	$0, -280(%rbx)
	movq	$0, -272(%rbx)
	movq	$0, -264(%rbx)
	movq	$0, -256(%rbx)
	movq	$0, -248(%rbx)
	movq	$0, -240(%rbx)
	movq	$0, -232(%rbx)
	movq	$0, -224(%rbx)
	movq	$0, -216(%rbx)
	movq	$0, -208(%rbx)
	movq	$0, -200(%rbx)
	movq	$0, -192(%rbx)
	movq	$0, -184(%rbx)
	movq	$0, -176(%rbx)
	movq	$0, -168(%rbx)
	movq	$0, -160(%rbx)
	movq	$0, -152(%rbx)
	movq	$0, -144(%rbx)
	movq	$0, -136(%rbx)
	movq	$0, -128(%rbx)
	movq	$0, -120(%rbx)
	movq	$0, -112(%rbx)
	movq	$0, -104(%rbx)
	movq	$0, -96(%rbx)
	movq	$0, -88(%rbx)
	movq	$0, -80(%rbx)
	movq	$0, -72(%rbx)
	.loc 7 79 5 is_stmt 1
	cmpq	$0, -56(%rbp)
	jne	.L118
	.loc 7 82 17
	leaq	-400(%rbx), %rax
	addq	$12, %rax
	movq	%rax, %rdx
	shrq	$3, %rdx
	addq	$2147450880, %rdx
	movzbl	(%rdx), %edx
	testb	%dl, %dl
	setne	%r8b
	movq	%rax, %rcx
	andl	$7, %ecx
	addl	$3, %ecx
	cmpb	%dl, %cl
	setge	%dl
	andl	%r8d, %edx
	testb	%dl, %dl
	je	.L119
	movq	%rax, %rcx
	call	__asan_report_load4
.L119:
	movl	-388(%rbx), %ecx
	.loc 7 82 85
	leaq	-400(%rbx), %rax
	addq	$16, %rax
	movq	%rax, %rdx
	movq	%rdx, %rax
	shrq	$3, %rax
	addq	$2147450880, %rax
	movzbl	(%rax), %eax
	testb	%al, %al
	setne	%r8b
	cmpb	$3, %al
	setle	%al
	andl	%r8d, %eax
	testb	%al, %al
	je	.L120
	movq	%rdx, %rcx
	call	__asan_report_load4
.L120:
	movl	-384(%rbx), %eax
	.loc 7 82 17
	leal	1(%rax), %r8d
	.loc 7 82 63
	leaq	-400(%rbx), %rax
	addq	$20, %rax
	movq	%rax, %rdx
	shrq	$3, %rdx
	addq	$2147450880, %rdx
	movzbl	(%rdx), %edx
	testb	%dl, %dl
	setne	%r10b
	movq	%rax, %r9
	andl	$7, %r9d
	addl	$3, %r9d
	cmpb	%dl, %r9b
	setge	%dl
	andl	%r10d, %edx
	testb	%dl, %dl
	je	.L121
	movq	%rax, %rcx
	call	__asan_report_load4
.L121:
	movl	-380(%rbx), %eax
	.loc 7 82 17
	leal	1900(%rax), %r9d
	leaq	.LC6(%rip), %r10
	leaq	-320(%rbx), %rax
	movq	552(%rbp), %rdx
	movq	%rdx, 48(%rsp)
	movl	%ecx, 40(%rsp)
	movl	%r8d, 32(%rsp)
	movq	%r10, %r8
	movl	$255, %edx
	movq	%rax, %rcx
	call	__mingw_snprintf
	jmp	.L122
.L118:
	.loc 7 86 15
	movq	-56(%rbp), %rax
	leaq	1(%rax), %rdx
	.loc 7 86 16
	movq	544(%rbp), %rax
	addq	$136, %rax
	.loc 7 86 15
	movq	%rax, %rcx
	call	strcpy
	.loc 7 87 40
	movq	-56(%rbp), %rax
	subq	552(%rbp), %rax
	.loc 7 87 52
	addq	$1, %rax
	.loc 7 87 16
	movq	%rax, %rdx
	.loc 7 87 17
	movq	544(%rbp), %rax
	leaq	8(%rax), %rcx
	.loc 7 87 16
	movq	552(%rbp), %rax
	movq	%rdx, %r8
	movq	%rax, %rdx
	call	strncpy
	.loc 7 88 124
	movq	544(%rbp), %rax
	leaq	136(%rax), %r9
	.loc 7 88 17
	leaq	-400(%rbx), %rax
	addq	$12, %rax
	movq	%rax, %rdx
	shrq	$3, %rdx
	addq	$2147450880, %rdx
	movzbl	(%rdx), %edx
	testb	%dl, %dl
	setne	%r8b
	movq	%rax, %rcx
	andl	$7, %ecx
	addl	$3, %ecx
	cmpb	%dl, %cl
	setge	%dl
	andl	%r8d, %edx
	testb	%dl, %dl
	je	.L123
	movq	%rax, %rcx
	call	__asan_report_load4
.L123:
	movl	-388(%rbx), %ecx
	.loc 7 88 97
	leaq	-400(%rbx), %rax
	addq	$16, %rax
	movq	%rax, %rdx
	movq	%rdx, %rax
	shrq	$3, %rax
	addq	$2147450880, %rax
	movzbl	(%rax), %eax
	testb	%al, %al
	setne	%r8b
	cmpb	$3, %al
	setle	%al
	andl	%r8d, %eax
	testb	%al, %al
	je	.L124
	movq	%rdx, %rcx
	call	__asan_report_load4
.L124:
	movl	-384(%rbx), %eax
	.loc 7 88 17
	leal	1(%rax), %r8d
	.loc 7 88 75
	leaq	-400(%rbx), %rax
	addq	$20, %rax
	movq	%rax, %rdx
	shrq	$3, %rdx
	addq	$2147450880, %rdx
	movzbl	(%rdx), %edx
	testb	%dl, %dl
	setne	%r11b
	movq	%rax, %r10
	andl	$7, %r10d
	addl	$3, %r10d
	cmpb	%dl, %r10b
	setge	%dl
	andl	%r11d, %edx
	testb	%dl, %dl
	je	.L125
	movq	%rax, %rcx
	call	__asan_report_load4
.L125:
	movl	-380(%rbx), %eax
	.loc 7 88 17
	leal	1900(%rax), %edx
	.loc 7 88 59
	movq	544(%rbp), %rax
	leaq	8(%rax), %r11
	.loc 7 88 17
	leaq	.LC7(%rip), %r10
	leaq	-320(%rbx), %rax
	movq	%r9, 56(%rsp)
	movl	%ecx, 48(%rsp)
	movl	%r8d, 40(%rsp)
	movl	%edx, 32(%rsp)
	movq	%r11, %r9
	movq	%r10, %r8
	movl	$255, %edx
	movq	%rax, %rcx
	call	__mingw_snprintf
.L122:
	.loc 7 91 21
	leaq	-400(%rbx), %rax
	addq	$12, %rax
	movq	%rax, %rdx
	shrq	$3, %rdx
	addq	$2147450880, %rdx
	movzbl	(%rdx), %edx
	testb	%dl, %dl
	setne	%r8b
	movq	%rax, %rcx
	andl	$7, %ecx
	addl	$3, %ecx
	cmpb	%dl, %cl
	setge	%dl
	andl	%r8d, %edx
	testb	%dl, %dl
	je	.L126
	movq	%rax, %rcx
	call	__asan_report_load4
.L126:
	movl	-388(%rbx), %ecx
	.loc 7 91 13
	movq	544(%rbp), %rax
	addq	$280, %rax
	movq	%rax, %rdx
	movq	%rdx, %rax
	shrq	$3, %rax
	addq	$2147450880, %rax
	movzbl	(%rax), %eax
	testb	%al, %al
	setne	%r8b
	cmpb	$3, %al
	setle	%al
	andl	%r8d, %eax
	testb	%al, %al
	je	.L127
	movq	%rdx, %rcx
	call	__asan_report_store4
.L127:
	movq	544(%rbp), %rax
	movl	%ecx, 280(%rax)
	.loc 7 93 17
	leaq	.LC8(%rip), %rdx
	leaq	-320(%rbx), %rax
	movq	%rax, %rcx
	call	fopen
	.loc 7 93 10 discriminator 2
	movq	544(%rbp), %rdx
	addq	$288, %rdx
	movq	%rdx, %rcx
	shrq	$3, %rcx
	addq	$2147450880, %rcx
	movzbl	(%rcx), %ecx
	testb	%cl, %cl
	je	.L128
	movq	%rdx, %rcx
	call	__asan_report_store8
.L128:
	movq	544(%rbp), %rdx
	movq	%rax, 288(%rdx)
	.loc 7 94 9
	movq	544(%rbp), %rax
	movq	288(%rax), %rax
	.loc 7 94 5
	testq	%rax, %rax
	jne	.L129
	.loc 7 96 53
	leaq	.LC9(%rip), %rdx
	movq	.refptr._ZSt4cerr(%rip), %rax
	movq	%rax, %rcx
	call	_ZStlsISt11char_traitsIcEERSt13basic_ostreamIcT_ES5_PKc
	movq	%rax, %rcx
	.loc 7 96 53 is_stmt 0 discriminator 2
	leaq	-320(%rbx), %rax
	movq	%rax, %rdx
	call	_ZStlsISt11char_traitsIcEERSt13basic_ostreamIcT_ES5_PKc
	movq	%rax, %rcx
	.loc 7 96 75 is_stmt 1 discriminator 4
	movq	.refptr._ZSt4endlIcSt11char_traitsIcEERSt13basic_ostreamIT_T0_ES6_(%rip), %rax
	movq	%rax, %rdx
	call	_ZNSolsEPFRSoS_E
	.loc 7 97 18
	movq	544(%rbp), %rax
	addq	$296, %rax
	movq	%rax, %rdx
	shrq	$3, %rdx
	addq	$2147450880, %rdx
	movzbl	(%rdx), %edx
	testb	%dl, %dl
	je	.L130
	movq	%rax, %rcx
	call	__asan_report_load8
.L130:
	movq	544(%rbp), %rax
	movq	296(%rax), %rax
	.loc 7 97 9
	testq	%rax, %rax
	je	.L131
	.loc 7 97 18 discriminator 1
	movq	544(%rbp), %rax
	movq	296(%rax), %rax
	movq	%rax, %rcx
	call	_ZdaPv
.L131:
	.loc 7 98 13
	movq	544(%rbp), %rax
	addq	$312, %rax
	movq	%rax, %rdx
	movq	%rdx, %rax
	shrq	$3, %rax
	addq	$2147450880, %rax
	movzbl	(%rax), %eax
	testb	%al, %al
	setne	%cl
	testb	%al, %al
	setle	%al
	andl	%ecx, %eax
	testb	%al, %al
	je	.L132
	movq	%rdx, %rcx
	call	__asan_report_load1
.L132:
	movq	544(%rbp), %rax
	movzbl	312(%rax), %eax
	.loc 7 98 9
	testb	%al, %al
	je	.L133
	.loc 7 98 25 discriminator 1
	movq	544(%rbp), %rax
	addq	$304, %rax
	movq	%rax, %rdx
	shrq	$3, %rdx
	addq	$2147450880, %rdx
	movzbl	(%rdx), %edx
	testb	%dl, %dl
	je	.L134
	movq	%rax, %rcx
	call	__asan_report_load8
.L134:
	movq	544(%rbp), %rax
	movq	304(%rax), %rbx
	testq	%rbx, %rbx
	je	.L133
	.loc 7 98 32 discriminator 2
	movq	%rbx, %rcx
	call	_ZN11block_queueINSt7__cxx1112basic_stringIcSt11char_traitsIcESaIcEEEED1Ev
	.loc 7 98 32 is_stmt 0 discriminator 3
	movq	%rbx, %rcx
	call	_ZdlPv
.L133:
	.loc 7 99 16 is_stmt 1
	movl	$0, %r13d
	jmp	.L135
.L129:
	.loc 7 102 12
	movl	$1, %r13d
.L135:
	.loc 7 103 1
	movl	%r13d, %edx
	.loc 7 32 1
	cmpq	%rdi, %r15
	je	.L92
	jmp	.L139
.L138:
.LBB114:
.LBB113:
	.loc 7 40 21 discriminator 4
	movq	%rax, %rbx
	testb	%r14b, %r14b
	je	.L141
	.loc 7 40 61 discriminator 8
	movq	%r12, %rcx
	call	_ZdlPv
.L141:
	.loc 7 40 21
	nop
	call	__asan_handle_no_return
	movq	%rbx, %rcx
	call	_Unwind_Resume
.LEHE12:
.L139:
.LBE113:
.LBE114:
	.loc 7 32 1
	movq	$1172321806, (%rdi)
	movl	$-168430091, %eax
	movd	%eax, %xmm1
	pshufd	$0, %xmm1, %xmm0
	movups	%xmm0, 2147450880(%rsi)
	movups	%xmm0, 2147450896(%rsi)
	movups	%xmm0, 2147450912(%rsi)
	movups	%xmm0, 2147450928(%rsi)
	movq	504(%rdi), %rax
	movb	$0, (%rax)
	jmp	.L93
.L92:
	pxor	%xmm0, %xmm0
	movups	%xmm0, 2147450880(%rsi)
	movq	%xmm0, 2147450896(%rsi)
	movq	$0, 2147450936(%rsi)
.L93:
	.loc 7 103 1
	movl	%edx, %eax
	addq	$600, %rsp
	popq	%rbx
	.cfi_restore 3
	popq	%rsi
	.cfi_restore 4
	popq	%rdi
	.cfi_restore 5
	popq	%r12
	.cfi_restore 12
	popq	%r13
	.cfi_restore 13
	popq	%r14
	.cfi_restore 14
	popq	%r15
	.cfi_restore 15
	popq	%rbp
	.cfi_restore 6
	.cfi_def_cfa 7, -536
	ret
	.cfi_endproc
.LFE1802:
	.seh_handler	__gxx_personality_seh0, @unwind, @except
	.seh_handlerdata
.LLSDA1802:
	.byte	0xff
	.byte	0xff
	.byte	0x1
	.uleb128 .LLSDACSE1802-.LLSDACSB1802
.LLSDACSB1802:
	.uleb128 .LEHB10-.LFB1802
	.uleb128 .LEHE10-.LEHB10
	.uleb128 0
	.uleb128 0
	.uleb128 .LEHB11-.LFB1802
	.uleb128 .LEHE11-.LEHB11
	.uleb128 .L138-.LFB1802
	.uleb128 0
	.uleb128 .LEHB12-.LFB1802
	.uleb128 .LEHE12-.LEHB12
	.uleb128 0
	.uleb128 0
.LLSDACSE1802:
	.text
	.seh_endproc
	.bss
	.align 32
_ZZN3Log9write_logEiPKczE12dropped_logs:
	.space 64
	.section .rdata,"dr"
	.align 8
.LC10:
	.ascii "11 48 8 7 now:107 80 8 5 t:109 112 8 8 lock:137 144 8 9 valst:169 176 8 8 lock:175 208 8 8 lock:211 240 16 5 s:113 272 16 8 tail:147 304 32 11 log_str:173 368 36 9 my_tm:110 448 256 11 new_log:143\0"
	.align 32
.LC11:
	.ascii "[debug]:\0"
	.space 55
	.align 32
.LC12:
	.ascii "[info]:\0"
	.space 56
	.align 32
.LC13:
	.ascii "[warn]:\0"
	.space 56
	.align 32
.LC14:
	.ascii "[error]:\0"
	.space 55
	.align 32
.LC15:
	.ascii "%d_%02d_%02d_\0"
	.space 50
	.align 32
.LC16:
	.ascii "%s%s%s\0"
	.space 57
	.align 32
.LC17:
	.ascii "%s%s%s.%lld\0"
	.space 52
	.align 32
.LC18:
	.ascii "%d-%02d-%02d %02d:%02d:%02d.%06ld %s \0"
	.space 58
	.align 32
.LC19:
	.ascii "Log queue full. Dropped logs count: \0"
	.space 59
	.text
	.align 2
	.globl	_ZN3Log9write_logEiPKcz
	.def	_ZN3Log9write_logEiPKcz;	.scl	2;	.type	32;	.endef
	.seh_proc	_ZN3Log9write_logEiPKcz
_ZN3Log9write_logEiPKcz:
.LASANPC1803:
.LFB1803:
	.loc 7 106 1
	.cfi_startproc
	pushq	%rbp
	.seh_pushreg	%rbp
	.cfi_def_cfa_offset 16
	.cfi_offset 6, -16
	pushq	%r15
	.seh_pushreg	%r15
	.cfi_def_cfa_offset 24
	.cfi_offset 15, -24
	pushq	%r14
	.seh_pushreg	%r14
	.cfi_def_cfa_offset 32
	.cfi_offset 14, -32
	pushq	%r13
	.seh_pushreg	%r13
	.cfi_def_cfa_offset 40
	.cfi_offset 13, -40
	pushq	%r12
	.seh_pushreg	%r12
	.cfi_def_cfa_offset 48
	.cfi_offset 12, -48
	pushq	%rdi
	.seh_pushreg	%rdi
	.cfi_def_cfa_offset 56
	.cfi_offset 5, -56
	pushq	%rsi
	.seh_pushreg	%rsi
	.cfi_def_cfa_offset 64
	.cfi_offset 4, -64
	pushq	%rbx
	.seh_pushreg	%rbx
	.cfi_def_cfa_offset 72
	.cfi_offset 3, -72
	subq	$888, %rsp
	.seh_stackalloc	888
	.cfi_def_cfa_offset 960
	leaq	128(%rsp), %rbp
	.seh_setframe	%rbp, 128
	.cfi_def_cfa 6, 832
	.seh_endprologue
	movq	%rcx, 832(%rbp)
	movl	%edx, 840(%rbp)
	movq	%r8, 848(%rbp)
	movq	%r9, 856(%rbp)
	leaq	-16(%rbp), %rdi
	movq	%rdi, %r15
	movq	.refptr.__asan_option_detect_stack_use_after_return(%rip), %rax
	cmpl	$0, (%rax)
	je	.L142
	movl	$768, %ecx
	call	__asan_stack_malloc_4
	testq	%rax, %rax
	je	.L142
	movq	%rax, %rdi
.L142:
	leaq	768(%rdi), %rax
	movq	%rax, %rbx
	movq	$1102416563, (%rdi)
	leaq	.LC10(%rip), %rax
	movq	%rax, 8(%rdi)
	leaq	.LASANPC1803(%rip), %rax
	movq	%rax, 16(%rdi)
	movq	%rdi, %rsi
	shrq	$3, %rsi
	movl	$-235802127, 2147450880(%rsi)
	movl	$-234819087, 2147450884(%rsi)
	movl	$-234818830, 2147450888(%rsi)
	movl	$-234818830, 2147450892(%rsi)
	movl	$-234818830, 2147450896(%rsi)
	movl	$-234818830, 2147450900(%rsi)
	movl	$-234818830, 2147450904(%rsi)
	movl	$62194, 2147450908(%rsi)
	movl	$62194, 2147450912(%rsi)
	movl	$62194, 2147450916(%rsi)
	movl	$-219021312, 2147450920(%rsi)
	movl	$62194, 2147450924(%rsi)
	movl	$-234618880, 2147450928(%rsi)
	movl	$-218959118, 2147450932(%rsi)
	movl	$-202116109, 2147450968(%rsi)
	movl	$-202116109, 2147450972(%rsi)
	.loc 7 107 20 discriminator 1
	leaq	-720(%rbx), %rax
	movq	%rax, %rdx
	movq	%rdx, %rax
	shrq	$3, %rax
	addq	$2147450880, %rax
	movzbl	(%rax), %eax
	testb	%al, %al
	setne	%cl
	cmpb	$3, %al
	setle	%al
	andl	%ecx, %eax
	testb	%al, %al
	je	.L146
	movq	%rdx, %rcx
	call	__asan_report_store4
.L146:
	movl	$0, -720(%rbx)
	leaq	-720(%rbx), %rax
	addq	$4, %rax
	movq	%rax, %rdx
	shrq	$3, %rdx
	addq	$2147450880, %rdx
	movzbl	(%rdx), %edx
	testb	%dl, %dl
	setne	%r8b
	movq	%rax, %rcx
	andl	$7, %ecx
	addl	$3, %ecx
	cmpb	%dl, %cl
	setge	%dl
	andl	%r8d, %edx
	testb	%dl, %dl
	je	.L147
	movq	%rax, %rcx
	call	__asan_report_store4
.L147:
	movl	$0, -716(%rbx)
	.loc 7 108 17
	leaq	-720(%rbx), %rax
	movl	$0, %edx
	movq	%rax, %rcx
.LEHB13:
	call	gettimeofday
	.loc 7 109 20 discriminator 1
	leaq	-720(%rbx), %rax
	movq	%rax, %rdx
	movq	%rdx, %rax
	shrq	$3, %rax
	addq	$2147450880, %rax
	movzbl	(%rax), %eax
	testb	%al, %al
	setne	%cl
	cmpb	$3, %al
	setle	%al
	andl	%ecx, %eax
	testb	%al, %al
	je	.L148
	movq	%rdx, %rcx
	call	__asan_report_load4
.L148:
	movl	-720(%rbx), %eax
	movslq	%eax, %rdx
	.loc 7 109 12 discriminator 1
	leaq	-688(%rbx), %rax
	movq	%rax, %rcx
	shrq	$3, %rcx
	addq	$2147450880, %rcx
	movzbl	(%rcx), %ecx
	testb	%cl, %cl
	je	.L149
	movq	%rax, %rcx
	call	__asan_report_store8
.L149:
	movq	%rdx, -688(%rbx)
	.loc 7 111 16
	leaq	-400(%rbx), %rdx
	leaq	-688(%rbx), %rax
	movq	%rax, %rcx
	call	_ZL11localtime_rPKxP2tm
	.loc 7 113 10 discriminator 1
	leaq	-528(%rbx), %rax
	movq	%rax, %rdx
	shrq	$3, %rdx
	addq	$2147450880, %rdx
	movzwl	(%rdx), %edx
	testw	%dx, %dx
	je	.L150
	movq	%rax, %rcx
	call	__asan_report_store16
.L150:
	movq	$0, -528(%rbx)
	movq	$0, -520(%rbx)
	.loc 7 116 5
	cmpl	$3, 840(%rbp)
	je	.L151
	cmpl	$3, 840(%rbp)
	jg	.L152
	cmpl	$2, 840(%rbp)
	je	.L153
	cmpl	$2, 840(%rbp)
	jg	.L152
	cmpl	$0, 840(%rbp)
	je	.L154
	cmpl	$1, 840(%rbp)
	je	.L155
	jmp	.L152
.L154:
	.loc 7 119 15
	leaq	.LC11(%rip), %rdx
	leaq	-528(%rbx), %rax
	movl	$9, %r8d
	movq	%rax, %rcx
	call	memcpy
	.loc 7 120 9
	jmp	.L156
.L155:
	.loc 7 122 15
	leaq	.LC12(%rip), %rdx
	leaq	-528(%rbx), %rax
	movl	$8, %r8d
	movq	%rax, %rcx
	call	memcpy
	.loc 7 123 9
	jmp	.L156
.L153:
	.loc 7 125 15
	leaq	.LC13(%rip), %rdx
	leaq	-528(%rbx), %rax
	movl	$8, %r8d
	movq	%rax, %rcx
	call	memcpy
	.loc 7 126 9
	jmp	.L156
.L151:
	.loc 7 128 15
	leaq	.LC14(%rip), %rdx
	leaq	-528(%rbx), %rax
	movl	$9, %r8d
	movq	%rax, %rcx
	call	memcpy
	.loc 7 129 9
	jmp	.L156
.L152:
	.loc 7 131 15
	leaq	.LC12(%rip), %rdx
	leaq	-528(%rbx), %rax
	movl	$8, %r8d
	movq	%rax, %rcx
	call	memcpy
	.loc 7 132 9
	nop
.L156:
.LBB115:
	.loc 7 137 27 discriminator 1
	movq	832(%rbp), %rax
	leaq	320(%rax), %rdx
	.loc 7 137 34 discriminator 1
	leaq	-656(%rbx), %rax
	movq	%rax, %rcx
	call	_ZN12locker_guardC1ER6locker
.LEHE13:
	.loc 7 138 9
	movq	832(%rbp), %rax
	addq	$272, %rax
	movq	%rax, %rdx
	shrq	$3, %rdx
	addq	$2147450880, %rdx
	movzbl	(%rdx), %edx
	testb	%dl, %dl
	je	.L157
	movq	%rax, %rcx
	call	__asan_report_load8
.L157:
	movq	832(%rbp), %rax
	movq	272(%rax), %rax
	.loc 7 138 16
	leaq	1(%rax), %rdx
	movq	832(%rbp), %rax
	movq	%rdx, 272(%rax)
.LBB116:
	.loc 7 141 13
	movq	832(%rbp), %rax
	addq	$280, %rax
	movq	%rax, %rdx
	movq	%rdx, %rax
	shrq	$3, %rax
	addq	$2147450880, %rax
	movzbl	(%rax), %eax
	testb	%al, %al
	setne	%cl
	cmpb	$3, %al
	setle	%al
	andl	%ecx, %eax
	testb	%al, %al
	je	.L158
	movq	%rdx, %rcx
	call	__asan_report_load4
.L158:
	movq	832(%rbp), %rax
	movl	280(%rax), %ecx
	.loc 7 141 30
	leaq	-400(%rbx), %rax
	addq	$12, %rax
	movq	%rax, %rdx
	shrq	$3, %rdx
	addq	$2147450880, %rdx
	movzbl	(%rdx), %edx
	testb	%dl, %dl
	setne	%r9b
	movq	%rax, %r8
	andl	$7, %r8d
	addl	$3, %r8d
	cmpb	%dl, %r8b
	setge	%dl
	andl	%r9d, %edx
	testb	%dl, %dl
	je	.L159
	movq	%rax, %rcx
	call	__asan_report_load4
.L159:
	movl	-388(%rbx), %eax
	.loc 7 141 9
	cmpl	%eax, %ecx
	jne	.L160
	.loc 7 141 41 discriminator 1
	movq	832(%rbp), %rax
	movq	272(%rax), %rcx
	.loc 7 141 51 discriminator 1
	movq	832(%rbp), %rax
	addq	$264, %rax
	movq	%rax, %rdx
	movq	%rdx, %rax
	shrq	$3, %rax
	addq	$2147450880, %rax
	movzbl	(%rax), %eax
	testb	%al, %al
	setne	%r8b
	cmpb	$3, %al
	setle	%al
	andl	%r8d, %eax
	testb	%al, %al
	je	.L161
	movq	%rdx, %rcx
	call	__asan_report_load4
.L161:
	movq	832(%rbp), %rax
	movl	264(%rax), %eax
	movslq	%eax, %r11
	.loc 7 141 49 discriminator 1
	movq	%rcx, %rax
	cqto
	idivq	%r11
	movq	%rdx, %rcx
	movq	%rcx, %rax
	.loc 7 141 38 discriminator 1
	testq	%rax, %rax
	jne	.L162
.L160:
.LBB117:
	.loc 7 143 18 discriminator 1
	leaq	-320(%rbx), %rax
	movq	%rax, %rdx
	shrq	$3, %rdx
	addq	$2147450880, %rdx
	movzbl	(%rdx), %edx
	testb	%dl, %dl
	setne	%cl
	testb	%dl, %dl
	setle	%dl
	andl	%edx, %ecx
	movl	%ecx, %r8d
	movl	$256, %edx
	subq	$1, %rdx
	leaq	(%rax,%rdx), %rcx
	movq	%rcx, %rdx
	shrq	$3, %rdx
	addq	$2147450880, %rdx
	movzbl	(%rdx), %edx
	testb	%dl, %dl
	setne	%r9b
	andl	$7, %ecx
	cmpb	%dl, %cl
	setge	%dl
	andl	%r9d, %edx
	orl	%r8d, %edx
	testb	%dl, %dl
	je	.L163
	movl	$256, %edx
	movq	%rax, %rcx
	call	__asan_report_store_n
.L163:
	movq	$0, -320(%rbx)
	movq	$0, -312(%rbx)
	movq	$0, -304(%rbx)
	movq	$0, -296(%rbx)
	movq	$0, -288(%rbx)
	movq	$0, -280(%rbx)
	movq	$0, -272(%rbx)
	movq	$0, -264(%rbx)
	movq	$0, -256(%rbx)
	movq	$0, -248(%rbx)
	movq	$0, -240(%rbx)
	movq	$0, -232(%rbx)
	movq	$0, -224(%rbx)
	movq	$0, -216(%rbx)
	movq	$0, -208(%rbx)
	movq	$0, -200(%rbx)
	movq	$0, -192(%rbx)
	movq	$0, -184(%rbx)
	movq	$0, -176(%rbx)
	movq	$0, -168(%rbx)
	movq	$0, -160(%rbx)
	movq	$0, -152(%rbx)
	movq	$0, -144(%rbx)
	movq	$0, -136(%rbx)
	movq	$0, -128(%rbx)
	movq	$0, -120(%rbx)
	movq	$0, -112(%rbx)
	movq	$0, -104(%rbx)
	movq	$0, -96(%rbx)
	movq	$0, -88(%rbx)
	movq	$0, -80(%rbx)
	movq	$0, -72(%rbx)
	.loc 7 144 19
	movq	832(%rbp), %rax
	addq	$288, %rax
	movq	%rax, %rdx
	shrq	$3, %rdx
	addq	$2147450880, %rdx
	movzbl	(%rdx), %edx
	testb	%dl, %dl
	je	.L164
	movq	%rax, %rcx
	call	__asan_report_load8
.L164:
	movq	832(%rbp), %rax
	movq	288(%rax), %rax
	movq	%rax, %rcx
.LEHB14:
	call	fflush
	.loc 7 145 19
	movq	832(%rbp), %rax
	addq	$288, %rax
	movq	%rax, %rdx
	shrq	$3, %rdx
	addq	$2147450880, %rdx
	movzbl	(%rdx), %edx
	testb	%dl, %dl
	je	.L165
	movq	%rax, %rcx
	call	__asan_report_load8
.L165:
	movq	832(%rbp), %rax
	movq	288(%rax), %rax
	movq	%rax, %rcx
	call	fclose
	.loc 7 147 18 discriminator 1
	leaq	-496(%rbx), %rax
	movq	%rax, %rdx
	shrq	$3, %rdx
	addq	$2147450880, %rdx
	movzwl	(%rdx), %edx
	testw	%dx, %dx
	je	.L166
	movq	%rax, %rcx
	call	__asan_report_store16
.L166:
	movq	$0, -496(%rbx)
	movq	$0, -488(%rbx)
	.loc 7 148 21
	leaq	-400(%rbx), %rax
	addq	$12, %rax
	movq	%rax, %rdx
	shrq	$3, %rdx
	addq	$2147450880, %rdx
	movzbl	(%rdx), %edx
	testb	%dl, %dl
	setne	%r8b
	movq	%rax, %rcx
	andl	$7, %ecx
	addl	$3, %ecx
	cmpb	%dl, %cl
	setge	%dl
	andl	%r8d, %edx
	testb	%dl, %dl
	je	.L167
	movq	%rax, %rcx
	call	__asan_report_load4
.L167:
	movl	-388(%rbx), %ecx
	.loc 7 148 77
	leaq	-400(%rbx), %rax
	addq	$16, %rax
	movq	%rax, %rdx
	movq	%rdx, %rax
	shrq	$3, %rax
	addq	$2147450880, %rax
	movzbl	(%rax), %eax
	testb	%al, %al
	setne	%r8b
	cmpb	$3, %al
	setle	%al
	andl	%r8d, %eax
	testb	%al, %al
	je	.L168
	movq	%rdx, %rcx
	call	__asan_report_load4
.L168:
	movl	-384(%rbx), %eax
	.loc 7 148 21
	leal	1(%rax), %r8d
	.loc 7 148 55
	leaq	-400(%rbx), %rax
	addq	$20, %rax
	movq	%rax, %rdx
	shrq	$3, %rdx
	addq	$2147450880, %rdx
	movzbl	(%rdx), %edx
	testb	%dl, %dl
	setne	%r10b
	movq	%rax, %r9
	andl	$7, %r9d
	addl	$3, %r9d
	cmpb	%dl, %r9b
	setge	%dl
	andl	%r10d, %edx
	testb	%dl, %dl
	je	.L169
	movq	%rax, %rcx
	call	__asan_report_load4
.L169:
	movl	-380(%rbx), %eax
	.loc 7 148 21
	leal	1900(%rax), %r9d
	leaq	.LC15(%rip), %rdx
	leaq	-496(%rbx), %rax
	movl	%ecx, 40(%rsp)
	movl	%r8d, 32(%rsp)
	movq	%rdx, %r8
	movl	$16, %edx
	movq	%rax, %rcx
	call	__mingw_snprintf
	.loc 7 150 17
	movq	832(%rbp), %rax
	addq	$280, %rax
	movq	%rax, %rdx
	movq	%rdx, %rax
	shrq	$3, %rax
	addq	$2147450880, %rax
	movzbl	(%rax), %eax
	testb	%al, %al
	setne	%cl
	cmpb	$3, %al
	setle	%al
	andl	%ecx, %eax
	testb	%al, %al
	je	.L170
	movq	%rdx, %rcx
	call	__asan_report_load4
.L170:
	movq	832(%rbp), %rax
	movl	280(%rax), %ecx
	.loc 7 150 34
	leaq	-400(%rbx), %rax
	addq	$12, %rax
	movq	%rax, %rdx
	shrq	$3, %rdx
	addq	$2147450880, %rdx
	movzbl	(%rdx), %edx
	testb	%dl, %dl
	setne	%r9b
	movq	%rax, %r8
	andl	$7, %r8d
	addl	$3, %r8d
	cmpb	%dl, %r8b
	setge	%dl
	andl	%r9d, %edx
	testb	%dl, %dl
	je	.L171
	movq	%rax, %rcx
	call	__asan_report_load4
.L171:
	movl	-388(%rbx), %eax
	.loc 7 150 13
	cmpl	%eax, %ecx
	je	.L172
	.loc 7 152 66
	movq	832(%rbp), %rax
	leaq	136(%rax), %rdx
	.loc 7 152 50
	movq	832(%rbp), %rax
	leaq	8(%rax), %r8
	.loc 7 152 25
	leaq	.LC16(%rip), %rcx
	leaq	-320(%rbx), %rax
	movq	%rdx, 40(%rsp)
	leaq	-496(%rbx), %rdx
	movq	%rdx, 32(%rsp)
	movq	%r8, %r9
	movq	%rcx, %r8
	movl	$255, %edx
	movq	%rax, %rcx
	call	__mingw_snprintf
	.loc 7 153 33
	leaq	-400(%rbx), %rax
	addq	$12, %rax
	movq	%rax, %rdx
	shrq	$3, %rdx
	addq	$2147450880, %rdx
	movzbl	(%rdx), %edx
	testb	%dl, %dl
	setne	%r8b
	movq	%rax, %rcx
	andl	$7, %ecx
	addl	$3, %ecx
	cmpb	%dl, %cl
	setge	%dl
	andl	%r8d, %edx
	testb	%dl, %dl
	je	.L173
	movq	%rax, %rcx
	call	__asan_report_load4
.L173:
	movl	-388(%rbx), %ecx
	.loc 7 153 25
	movq	832(%rbp), %rax
	addq	$280, %rax
	movq	%rax, %rdx
	movq	%rdx, %rax
	shrq	$3, %rax
	addq	$2147450880, %rax
	movzbl	(%rax), %eax
	testb	%al, %al
	setne	%r8b
	cmpb	$3, %al
	setle	%al
	andl	%r8d, %eax
	testb	%al, %al
	je	.L174
	movq	%rdx, %rcx
	call	__asan_report_store4
.L174:
	movq	832(%rbp), %rax
	movl	%ecx, 280(%rax)
	.loc 7 154 25
	movq	832(%rbp), %rax
	addq	$272, %rax
	movq	%rax, %rdx
	shrq	$3, %rdx
	addq	$2147450880, %rdx
	movzbl	(%rdx), %edx
	testb	%dl, %dl
	je	.L175
	movq	%rax, %rcx
	call	__asan_report_store8
.L175:
	movq	832(%rbp), %rax
	movq	$0, 272(%rax)
	jmp	.L176
.L172:
	.loc 7 158 81
	movq	832(%rbp), %rax
	addq	$272, %rax
	movq	%rax, %rdx
	shrq	$3, %rdx
	addq	$2147450880, %rdx
	movzbl	(%rdx), %edx
	testb	%dl, %dl
	je	.L177
	movq	%rax, %rcx
	call	__asan_report_load8
.L177:
	movq	832(%rbp), %rax
	movq	272(%rax), %rcx
	.loc 7 158 91
	movq	832(%rbp), %rax
	addq	$264, %rax
	movq	%rax, %rdx
	movq	%rdx, %rax
	shrq	$3, %rax
	addq	$2147450880, %rax
	movzbl	(%rax), %eax
	testb	%al, %al
	setne	%r8b
	cmpb	$3, %al
	setle	%al
	andl	%r8d, %eax
	testb	%al, %al
	je	.L178
	movq	%rdx, %rcx
	call	__asan_report_load4
.L178:
	movq	832(%rbp), %rax
	movl	264(%rax), %eax
	movslq	%eax, %r10
	.loc 7 158 25
	movq	%rcx, %rax
	cqto
	idivq	%r10
	movq	%rax, %r9
	.loc 7 158 71
	movq	832(%rbp), %rax
	leaq	136(%rax), %rdx
	.loc 7 158 55
	movq	832(%rbp), %rax
	leaq	8(%rax), %r8
	.loc 7 158 25
	leaq	.LC17(%rip), %rcx
	leaq	-320(%rbx), %rax
	movq	%r9, 48(%rsp)
	movq	%rdx, 40(%rsp)
	leaq	-496(%rbx), %rdx
	movq	%rdx, 32(%rsp)
	movq	%r8, %r9
	movq	%rcx, %r8
	movl	$255, %edx
	movq	%rax, %rcx
	call	__mingw_snprintf
.L176:
	.loc 7 160 25
	leaq	.LC8(%rip), %rdx
	leaq	-320(%rbx), %rax
	movq	%rax, %rcx
	call	fopen
	.loc 7 160 18 discriminator 2
	movq	832(%rbp), %rdx
	addq	$288, %rdx
	movq	%rdx, %rcx
	shrq	$3, %rcx
	addq	$2147450880, %rcx
	movzbl	(%rcx), %ecx
	testb	%cl, %cl
	je	.L179
	movq	%rdx, %rcx
	call	__asan_report_store8
.L179:
	movq	832(%rbp), %rdx
	movq	%rax, 288(%rdx)
	.loc 7 161 17
	movq	832(%rbp), %rax
	movq	288(%rax), %rax
	.loc 7 161 13
	testq	%rax, %rax
	jne	.L180
	.loc 7 163 61
	leaq	.LC9(%rip), %rdx
	movq	.refptr._ZSt4cerr(%rip), %rax
	movq	%rax, %rcx
	call	_ZStlsISt11char_traitsIcEERSt13basic_ostreamIcT_ES5_PKc
	movq	%rax, %rcx
	.loc 7 163 61 is_stmt 0 discriminator 2
	leaq	-320(%rbx), %rax
	movq	%rax, %rdx
	call	_ZStlsISt11char_traitsIcEERSt13basic_ostreamIcT_ES5_PKc
	movq	%rax, %rcx
	.loc 7 163 77 is_stmt 1 discriminator 4
	movq	.refptr._ZSt4endlIcSt11char_traitsIcEERSt13basic_ostreamIT_T0_ES6_(%rip), %rax
	movq	%rax, %rdx
	call	_ZNSolsEPFRSoS_E
.LEHE14:
	.loc 7 164 17
	movl	$0, %edx
	jmp	.L181
.L180:
	movl	$1, %edx
.L181:
	leaq	-320(%rbx), %rax
	shrq	$3, %rax
	addq	$2147450880, %rax
	movl	$-117901064, (%rax)
	movl	$-117901064, 4(%rax)
	movl	$-117901064, 8(%rax)
	movl	$-117901064, 12(%rax)
	movl	$-117901064, 16(%rax)
	movl	$-117901064, 20(%rax)
	movl	$-117901064, 24(%rax)
	movl	$-117901064, 28(%rax)
	leaq	-496(%rbx), %rax
	shrq	$3, %rax
	addq	$2147450880, %rax
	movw	$-1800, (%rax)
	cmpl	$1, %edx
	je	.L162
	movl	$0, %r12d
	jmp	.L182
.L162:
.LBE117:
.LBE116:
	.loc 7 167 5
	movl	$1, %r12d
.L182:
	.loc 7 167 5 is_stmt 0 discriminator 1
	leaq	-656(%rbx), %rax
	movq	%rax, %rcx
	call	_ZN12locker_guardD1Ev
	.loc 7 167 5 discriminator 2
	cmpl	$1, %r12d
	je	.L229
	movl	$0, %edx
	jmp	.L185
.L229:
	movl	$1, %edx
.L185:
	leaq	-656(%rbx), %rax
	shrq	$3, %rax
	addq	$2147450880, %rax
	movb	$-8, (%rax)
	cmpl	$1, %edx
	jne	.L230
.LBE115:
	.loc 7 169 13 is_stmt 1
	leaq	-624(%rbx), %rax
	shrq	$3, %rax
	addq	$2147450880, %rax
	movb	$0, (%rax)
	.loc 7 171 5
	leaq	856(%rbp), %rax
	movq	%rax, -624(%rbx)
.LBB120:
	.loc 7 173 12
	leaq	-464(%rbx), %rax
	shrq	$3, %rax
	addq	$2147450880, %rax
	movl	$0, (%rax)
	.loc 7 173 12 is_stmt 0 discriminator 1
	leaq	-464(%rbx), %rax
	movq	%rax, %rcx
	call	_ZNSt7__cxx1112basic_stringIcSt11char_traitsIcESaIcEEC1Ev
.LBB121:
	.loc 7 175 22 is_stmt 1
	leaq	-592(%rbx), %rax
	shrq	$3, %rax
	addq	$2147450880, %rax
	movb	$0, (%rax)
	.loc 7 175 27 discriminator 1
	movq	832(%rbp), %rax
	leaq	320(%rax), %rdx
	.loc 7 175 34 discriminator 1
	leaq	-592(%rbx), %rax
	movq	%rax, %rcx
.LEHB15:
	call	_ZN12locker_guardC1ER6locker
.LEHE15:
	.loc 7 178 25
	leaq	-720(%rbx), %rax
	addq	$4, %rax
	movq	%rax, %rdx
	shrq	$3, %rdx
	addq	$2147450880, %rdx
	movzbl	(%rdx), %edx
	testb	%dl, %dl
	setne	%r8b
	movq	%rax, %rcx
	andl	$7, %ecx
	addl	$3, %ecx
	cmpb	%dl, %cl
	setge	%dl
	andl	%r8d, %edx
	testb	%dl, %dl
	je	.L188
	movq	%rax, %rcx
	call	__asan_report_load4
.L188:
	movl	-716(%rbx), %r11d
	leaq	-400(%rbx), %rax
	movq	%rax, %rdx
	movq	%rdx, %rax
	shrq	$3, %rax
	addq	$2147450880, %rax
	movzbl	(%rax), %eax
	testb	%al, %al
	setne	%cl
	cmpb	$3, %al
	setle	%al
	andl	%ecx, %eax
	testb	%al, %al
	je	.L189
	movq	%rdx, %rcx
	call	__asan_report_load4
.L189:
	movl	-400(%rbx), %r10d
	leaq	-400(%rbx), %rax
	addq	$4, %rax
	movq	%rax, %rdx
	shrq	$3, %rdx
	addq	$2147450880, %rdx
	movzbl	(%rdx), %edx
	testb	%dl, %dl
	setne	%r8b
	movq	%rax, %rcx
	andl	$7, %ecx
	addl	$3, %ecx
	cmpb	%dl, %cl
	setge	%dl
	andl	%r8d, %edx
	testb	%dl, %dl
	je	.L190
	movq	%rax, %rcx
	call	__asan_report_load4
.L190:
	movl	-396(%rbx), %r9d
	leaq	-400(%rbx), %rax
	addq	$8, %rax
	movq	%rax, %rdx
	movq	%rdx, %rax
	shrq	$3, %rax
	addq	$2147450880, %rax
	movzbl	(%rax), %eax
	testb	%al, %al
	setne	%cl
	cmpb	$3, %al
	setle	%al
	andl	%ecx, %eax
	testb	%al, %al
	je	.L191
	movq	%rdx, %rcx
	call	__asan_report_load4
.L191:
	movl	-392(%rbx), %r8d
	leaq	-400(%rbx), %rax
	addq	$12, %rax
	movq	%rax, %rdx
	shrq	$3, %rdx
	addq	$2147450880, %rdx
	movzbl	(%rdx), %edx
	testb	%dl, %dl
	setne	%r12b
	movq	%rax, %rcx
	andl	$7, %ecx
	addl	$3, %ecx
	cmpb	%dl, %cl
	setge	%dl
	andl	%r12d, %edx
	testb	%dl, %dl
	je	.L192
	movq	%rax, %rcx
	call	__asan_report_load4
.L192:
	movl	-388(%rbx), %ecx
	.loc 7 179 53
	leaq	-400(%rbx), %rax
	addq	$16, %rax
	movq	%rax, %rdx
	movq	%rdx, %rax
	shrq	$3, %rax
	addq	$2147450880, %rax
	movzbl	(%rax), %eax
	testb	%al, %al
	setne	%r12b
	cmpb	$3, %al
	setle	%al
	andl	%r12d, %eax
	testb	%al, %al
	je	.L193
	movq	%rdx, %rcx
	call	__asan_report_load4
.L193:
	movl	-384(%rbx), %eax
	.loc 7 178 25
	leal	1(%rax), %r12d
	.loc 7 179 31
	leaq	-400(%rbx), %rax
	addq	$20, %rax
	movq	%rax, %rdx
	shrq	$3, %rdx
	addq	$2147450880, %rdx
	movzbl	(%rdx), %edx
	testb	%dl, %dl
	setne	%r14b
	movq	%rax, %r13
	andl	$7, %r13d
	addl	$3, %r13d
	cmpb	%dl, %r13b
	setge	%dl
	andl	%r14d, %edx
	testb	%dl, %dl
	je	.L194
	movq	%rax, %rcx
	call	__asan_report_load4
.L194:
	movl	-380(%rbx), %eax
	.loc 7 178 25
	leal	1900(%rax), %r14d
	movq	832(%rbp), %rax
	addq	$296, %rax
	movq	%rax, %rdx
	shrq	$3, %rdx
	addq	$2147450880, %rdx
	movzbl	(%rdx), %edx
	testb	%dl, %dl
	je	.L195
	movq	%rax, %rcx
	call	__asan_report_load8
.L195:
	movq	832(%rbp), %rax
	movq	296(%rax), %rax
	leaq	.LC18(%rip), %r13
	leaq	-528(%rbx), %rdx
	movq	%rdx, 80(%rsp)
	movl	%r11d, 72(%rsp)
	movl	%r10d, 64(%rsp)
	movl	%r9d, 56(%rsp)
	movl	%r8d, 48(%rsp)
	movl	%ecx, 40(%rsp)
	movl	%r12d, 32(%rsp)
	movl	%r14d, %r9d
	movq	%r13, %r8
	movl	$48, %edx
	movq	%rax, %rcx
.LEHB16:
	call	__mingw_snprintf
	.loc 7 178 25 is_stmt 0 discriminator 2
	movl	%eax, -24(%rbp)
	.loc 7 182 26 is_stmt 1
	leaq	-624(%rbx), %rax
	movq	%rax, %rdx
	shrq	$3, %rdx
	addq	$2147450880, %rdx
	movzbl	(%rdx), %edx
	testb	%dl, %dl
	je	.L196
	movq	%rax, %rcx
	call	__asan_report_load8
.L196:
	movq	-624(%rbx), %r8
	.loc 7 182 38
	movq	832(%rbp), %rax
	addq	$268, %rax
	movq	%rax, %rdx
	shrq	$3, %rdx
	addq	$2147450880, %rdx
	movzbl	(%rdx), %edx
	testb	%dl, %dl
	setne	%r9b
	movq	%rax, %rcx
	andl	$7, %ecx
	addl	$3, %ecx
	cmpb	%dl, %cl
	setge	%dl
	andl	%r9d, %edx
	testb	%dl, %dl
	je	.L197
	movq	%rax, %rcx
	call	__asan_report_load4
.L197:
	movq	832(%rbp), %rax
	movl	268(%rax), %eax
	.loc 7 182 53
	subl	-24(%rbp), %eax
	.loc 7 182 57
	subl	$1, %eax
	.loc 7 182 26
	cltq
	.loc 7 182 27
	movq	832(%rbp), %rdx
	addq	$296, %rdx
	movq	%rdx, %rcx
	shrq	$3, %rcx
	addq	$2147450880, %rcx
	movzbl	(%rcx), %ecx
	testb	%cl, %cl
	je	.L198
	movq	%rdx, %rcx
	call	__asan_report_load8
.L198:
	movq	832(%rbp), %rdx
	movq	296(%rdx), %rcx
	.loc 7 182 35
	movl	-24(%rbp), %edx
	movslq	%edx, %rdx
	.loc 7 182 26
	addq	%rdx, %rcx
	movq	848(%rbp), %rdx
	movq	%r8, %r9
	movq	%rdx, %r8
	movq	%rax, %rdx
	call	_Z9vsnprintfPcyPKcS_
	.loc 7 182 26 is_stmt 0 discriminator 2
	movl	%eax, -20(%rbp)
	.loc 7 183 9 is_stmt 1
	movq	832(%rbp), %rax
	addq	$296, %rax
	movq	%rax, %rdx
	shrq	$3, %rdx
	addq	$2147450880, %rdx
	movzbl	(%rdx), %edx
	testb	%dl, %dl
	je	.L199
	movq	%rax, %rcx
	call	__asan_report_load8
.L199:
	movq	832(%rbp), %rax
	movq	296(%rax), %rdx
	.loc 7 183 17
	movl	-24(%rbp), %ecx
	movl	-20(%rbp), %eax
	addl	%ecx, %eax
	cltq
	.loc 7 183 20
	leaq	(%rdx,%rax), %rcx
	.loc 7 183 22
	movq	%rcx, %rax
	movq	%rax, %rdx
	shrq	$3, %rdx
	addq	$2147450880, %rdx
	movzbl	(%rdx), %edx
	testb	%dl, %dl
	setne	%r8b
	movq	%rax, %r9
	andl	$7, %r9d
	cmpb	%dl, %r9b
	setge	%dl
	andl	%r8d, %edx
	testb	%dl, %dl
	je	.L200
	movq	%rax, %rcx
	call	__asan_report_store1
.L200:
	movb	$10, (%rcx)
	.loc 7 184 9
	movq	832(%rbp), %rax
	movq	296(%rax), %rax
	.loc 7 184 17
	movl	-24(%rbp), %ecx
	movl	-20(%rbp), %edx
	addl	%ecx, %edx
	movslq	%edx, %rdx
	.loc 7 184 21
	addq	$1, %rdx
	.loc 7 184 24
	leaq	(%rax,%rdx), %rcx
	.loc 7 184 26
	movq	%rcx, %rax
	movq	%rax, %rdx
	shrq	$3, %rdx
	addq	$2147450880, %rdx
	movzbl	(%rdx), %edx
	testb	%dl, %dl
	setne	%r8b
	movq	%rax, %r9
	andl	$7, %r9d
	cmpb	%dl, %r9b
	setge	%dl
	andl	%r8d, %edx
	testb	%dl, %dl
	je	.L201
	movq	%rax, %rcx
	call	__asan_report_store1
.L201:
	movb	$0, (%rcx)
	.loc 7 185 19
	movq	832(%rbp), %rax
	movq	296(%rax), %rdx
	leaq	-464(%rbx), %rax
	movq	%rax, %rcx
	call	_ZNSt7__cxx1112basic_stringIcSt11char_traitsIcESaIcEEaSEPKc
.LEHE16:
	.loc 7 186 5
	leaq	-592(%rbx), %rax
	movq	%rax, %rcx
	call	_ZN12locker_guardD1Ev
	leaq	-592(%rbx), %rax
	shrq	$3, %rax
	addq	$2147450880, %rax
	movb	$-8, (%rax)
.LBE121:
.LBB122:
	.loc 7 191 9
	movq	832(%rbp), %rax
	addq	$312, %rax
	movq	%rax, %rdx
	movq	%rdx, %rax
	shrq	$3, %rax
	addq	$2147450880, %rax
	movzbl	(%rax), %eax
	testb	%al, %al
	setne	%cl
	testb	%al, %al
	setle	%al
	andl	%ecx, %eax
	testb	%al, %al
	je	.L202
	movq	%rdx, %rcx
	call	__asan_report_load1
.L202:
	movq	832(%rbp), %rax
	movzbl	312(%rax), %eax
	.loc 7 191 44
	testb	%al, %al
	je	.L203
	.loc 7 191 24 discriminator 1
	movq	832(%rbp), %rax
	addq	$304, %rax
	movq	%rax, %rdx
	shrq	$3, %rdx
	addq	$2147450880, %rdx
	movzbl	(%rdx), %edx
	testb	%dl, %dl
	je	.L204
	movq	%rax, %rcx
	call	__asan_report_load8
.L204:
	movq	832(%rbp), %rax
	movq	304(%rax), %rax
	.loc 7 191 41 discriminator 1
	movq	%rax, %rcx
.LEHB17:
	call	_ZN11block_queueINSt7__cxx1112basic_stringIcSt11char_traitsIcESaIcEEEE4fullEv
	.loc 7 191 23 discriminator 4
	xorl	$1, %eax
	.loc 7 191 20 discriminator 4
	testb	%al, %al
	je	.L203
	.loc 7 191 47 discriminator 5
	movq	832(%rbp), %rax
	addq	$304, %rax
	movq	%rax, %rdx
	shrq	$3, %rdx
	addq	$2147450880, %rdx
	movzbl	(%rdx), %edx
	testb	%dl, %dl
	je	.L205
	movq	%rax, %rcx
	call	__asan_report_load8
.L205:
	movq	832(%rbp), %rax
	movq	304(%rax), %rax
	.loc 7 191 44 discriminator 5
	testq	%rax, %rax
	je	.L203
	.loc 7 191 44 is_stmt 0 discriminator 7
	movl	$1, %eax
	.loc 7 191 44
	jmp	.L206
.L203:
	.loc 7 191 44 discriminator 8
	movl	$0, %eax
.L206:
	.loc 7 191 5 is_stmt 1 discriminator 10
	testb	%al, %al
	je	.L207
	.loc 7 193 9
	movq	832(%rbp), %rax
	addq	$304, %rax
	movq	%rax, %rdx
	shrq	$3, %rdx
	addq	$2147450880, %rdx
	movzbl	(%rdx), %edx
	testb	%dl, %dl
	je	.L208
	movq	%rax, %rcx
	call	__asan_report_load8
.L208:
	movq	832(%rbp), %rax
	movq	304(%rax), %rax
	.loc 7 193 26
	leaq	-464(%rbx), %rdx
	movq	%rax, %rcx
	call	_ZN11block_queueINSt7__cxx1112basic_stringIcSt11char_traitsIcESaIcEEEE4pushERKS5_
	jmp	.L209
.L207:
.LBB123:
.LBB124:
	.loc 7 199 13
	movq	832(%rbp), %rax
	addq	$312, %rax
	movq	%rax, %rdx
	movq	%rdx, %rax
	shrq	$3, %rax
	addq	$2147450880, %rax
	movzbl	(%rax), %eax
	testb	%al, %al
	setne	%cl
	testb	%al, %al
	setle	%al
	andl	%ecx, %eax
	testb	%al, %al
	je	.L210
	movq	%rdx, %rcx
	call	__asan_report_load1
.L210:
	movq	832(%rbp), %rax
	movzbl	312(%rax), %eax
	.loc 7 199 24
	testb	%al, %al
	je	.L211
	.loc 7 199 27 discriminator 1
	movq	832(%rbp), %rax
	addq	$304, %rax
	movq	%rax, %rdx
	shrq	$3, %rdx
	addq	$2147450880, %rdx
	movzbl	(%rdx), %edx
	testb	%dl, %dl
	je	.L212
	movq	%rax, %rcx
	call	__asan_report_load8
.L212:
	movq	832(%rbp), %rax
	movq	304(%rax), %rax
	.loc 7 199 44 discriminator 1
	movq	%rax, %rcx
	call	_ZN11block_queueINSt7__cxx1112basic_stringIcSt11char_traitsIcESaIcEEEE4fullEv
	.loc 7 199 24 discriminator 4
	testb	%al, %al
	je	.L211
	.loc 7 199 24 is_stmt 0 discriminator 5
	movl	$1, %eax
	.loc 7 199 24
	jmp	.L213
.L211:
	.loc 7 199 24 discriminator 6
	movl	$0, %eax
.L213:
	.loc 7 199 9 is_stmt 1 discriminator 8
	testb	%al, %al
	je	.L214
	.loc 7 201 25
	movl	_ZZN3Log9write_logEiPKczE12dropped_logs(%rip), %eax
	addl	$1, %eax
	movl	%eax, _ZZN3Log9write_logEiPKczE12dropped_logs(%rip)
	.loc 7 202 30
	movl	_ZZN3Log9write_logEiPKczE12dropped_logs(%rip), %edx
	movslq	%edx, %rax
	imulq	$1374389535, %rax, %rax
	shrq	$32, %rax
	sarl	$5, %eax
	movl	%edx, %ecx
	sarl	$31, %ecx
	subl	%ecx, %eax
	imull	$100, %eax, %ecx
	movl	%edx, %eax
	subl	%ecx, %eax
	.loc 7 202 13
	testl	%eax, %eax
	jne	.L209
	.loc 7 205 30
	leaq	.LC19(%rip), %rdx
	movq	.refptr._ZSt4cerr(%rip), %rax
	movq	%rax, %rcx
	call	_ZStlsISt11char_traitsIcEERSt13basic_ostreamIcT_ES5_PKc
	movq	%rax, %rcx
	.loc 7 205 93 discriminator 2
	movl	_ZZN3Log9write_logEiPKczE12dropped_logs(%rip), %eax
	.loc 7 205 72 discriminator 2
	movl	%eax, %edx
	call	_ZNSolsEi
	movq	%rax, %rcx
	.loc 7 205 93 discriminator 4
	movq	.refptr._ZSt4endlIcSt11char_traitsIcEERSt13basic_ostreamIT_T0_ES6_(%rip), %rax
	movq	%rax, %rdx
	call	_ZNSolsEPFRSoS_E
.LEHE17:
	jmp	.L209
.L214:
.LBB125:
	.loc 7 211 26
	leaq	-560(%rbx), %rax
	shrq	$3, %rax
	addq	$2147450880, %rax
	movb	$0, (%rax)
	.loc 7 211 31 discriminator 1
	movq	832(%rbp), %rax
	leaq	320(%rax), %rdx
	.loc 7 211 38 discriminator 1
	leaq	-560(%rbx), %rax
	movq	%rax, %rcx
.LEHB18:
	call	_ZN12locker_guardC1ER6locker
.LEHE18:
	.loc 7 212 18
	movq	832(%rbp), %rax
	addq	$288, %rax
	movq	%rax, %rdx
	shrq	$3, %rdx
	addq	$2147450880, %rdx
	movzbl	(%rdx), %edx
	testb	%dl, %dl
	je	.L215
	movq	%rax, %rcx
	call	__asan_report_load8
.L215:
	movq	832(%rbp), %rax
	movq	288(%rax), %r12
	leaq	-464(%rbx), %rax
	movq	%rax, %rcx
	call	_ZNKSt7__cxx1112basic_stringIcSt11char_traitsIcESaIcEE5c_strEv
	.loc 7 212 18 is_stmt 0 discriminator 1
	movq	%r12, %rdx
	movq	%rax, %rcx
.LEHB19:
	call	fputs
.LEHE19:
	.loc 7 213 9 is_stmt 1
	leaq	-560(%rbx), %rax
	movq	%rax, %rcx
	call	_ZN12locker_guardD1Ev
	leaq	-560(%rbx), %rax
	shrq	$3, %rax
	addq	$2147450880, %rax
	movb	$-8, (%rax)
.L209:
.LBE125:
.LBE124:
.LBE123:
.LBE122:
	.loc 7 173 12
	leaq	-464(%rbx), %rax
	movq	%rax, %rcx
	call	_ZNSt7__cxx1112basic_stringIcSt11char_traitsIcESaIcEED1Ev
	jmp	.L145
.L223:
.LBE120:
.LBB131:
.LBB119:
.LBB118:
	movq	%rax, %rdx
	leaq	-320(%rbx), %rax
	shrq	$3, %rax
	addq	$2147450880, %rax
	movl	$-117901064, (%rax)
	movl	$-117901064, 4(%rax)
	movl	$-117901064, 8(%rax)
	movl	$-117901064, 12(%rax)
	movl	$-117901064, 16(%rax)
	movl	$-117901064, 20(%rax)
	movl	$-117901064, 24(%rax)
	movl	$-117901064, 28(%rax)
	leaq	-496(%rbx), %rax
	shrq	$3, %rax
	addq	$2147450880, %rax
	movw	$-1800, (%rax)
	movq	%rdx, %rsi
.LBE118:
.LBE119:
	.loc 7 167 5
	leaq	-656(%rbx), %rax
	movq	%rax, %rcx
	call	_ZN12locker_guardD1Ev
	movq	%rsi, %rbx
	call	__asan_handle_no_return
	movq	%rbx, %rcx
.LEHB20:
	call	_Unwind_Resume
.L225:
.LBE131:
.LBB132:
.LBB129:
	.loc 7 186 5
	movq	%rax, %rsi
	leaq	-592(%rbx), %rax
	movq	%rax, %rcx
	call	_ZN12locker_guardD1Ev
	movq	%rsi, %rax
	jmp	.L219
.L224:
.L219:
	leaq	-592(%rbx), %rdx
	shrq	$3, %rdx
	addq	$2147450880, %rdx
	movb	$-8, (%rdx)
	movq	%rax, %rsi
	jmp	.L220
.L228:
.LBE129:
.LBB130:
.LBB128:
.LBB127:
.LBB126:
	.loc 7 213 9
	movq	%rax, %rsi
	leaq	-560(%rbx), %rax
	movq	%rax, %rcx
	call	_ZN12locker_guardD1Ev
	movq	%rsi, %rax
	jmp	.L222
.L227:
.L222:
	leaq	-560(%rbx), %rdx
	shrq	$3, %rdx
	addq	$2147450880, %rdx
	movb	$-8, (%rdx)
	movq	%rax, %rsi
	jmp	.L220
.L226:
.LBE126:
.LBE127:
.LBE128:
.LBE130:
	.loc 7 173 12
	movq	%rax, %rsi
.L220:
	leaq	-464(%rbx), %rax
	movq	%rax, %rcx
	call	_ZNSt7__cxx1112basic_stringIcSt11char_traitsIcESaIcEED1Ev
	movq	%rsi, %rbx
	call	__asan_handle_no_return
	movq	%rbx, %rcx
	call	_Unwind_Resume
.LEHE20:
.L230:
.LBE132:
	.loc 7 215 1
	nop
.L145:
	.loc 7 106 1
	cmpq	%rdi, %r15
	je	.L143
	movq	$1172321806, (%rdi)
	movl	$-168430091, %eax
	movd	%eax, %xmm1
	pshufd	$0, %xmm1, %xmm0
	movups	%xmm0, 2147450880(%rsi)
	movups	%xmm0, 2147450896(%rsi)
	movups	%xmm0, 2147450912(%rsi)
	movups	%xmm0, 2147450928(%rsi)
	movups	%xmm0, 2147450944(%rsi)
	movups	%xmm0, 2147450960(%rsi)
	movq	1016(%rdi), %rax
	movb	$0, (%rax)
	jmp	.L144
.L143:
	leaq	2147450880(%rsi), %rax
	movl	$96, %ecx
	movl	$0, %r8d
	movq	%r8, (%rax)
	movl	%ecx, %edx
	addq	%rax, %rdx
	addq	$8, %rdx
	movq	%r8, -16(%rdx)
	leaq	8(%rax), %rdx
	andq	$-8, %rdx
	subq	%rdx, %rax
	addl	%eax, %ecx
	andl	$-8, %ecx
	movl	%ecx, %eax
	shrl	$3, %eax
	movl	%eax, %ecx
	movq	%rdx, %rdi
	movq	%r8, %rax
	rep stosq
.L144:
	.loc 7 215 1
	addq	$888, %rsp
	popq	%rbx
	.cfi_restore 3
	popq	%rsi
	.cfi_restore 4
	popq	%rdi
	.cfi_restore 5
	popq	%r12
	.cfi_restore 12
	popq	%r13
	.cfi_restore 13
	popq	%r14
	.cfi_restore 14
	popq	%r15
	.cfi_restore 15
	popq	%rbp
	.cfi_restore 6
	.cfi_def_cfa 7, -824
	ret
	.cfi_endproc
.LFE1803:
	.seh_handler	__gxx_personality_seh0, @unwind, @except
	.seh_handlerdata
.LLSDA1803:
	.byte	0xff
	.byte	0xff
	.byte	0x1
	.uleb128 .LLSDACSE1803-.LLSDACSB1803
.LLSDACSB1803:
	.uleb128 .LEHB13-.LFB1803
	.uleb128 .LEHE13-.LEHB13
	.uleb128 0
	.uleb128 0
	.uleb128 .LEHB14-.LFB1803
	.uleb128 .LEHE14-.LEHB14
	.uleb128 .L223-.LFB1803
	.uleb128 0
	.uleb128 .LEHB15-.LFB1803
	.uleb128 .LEHE15-.LEHB15
	.uleb128 .L224-.LFB1803
	.uleb128 0
	.uleb128 .LEHB16-.LFB1803
	.uleb128 .LEHE16-.LEHB16
	.uleb128 .L225-.LFB1803
	.uleb128 0
	.uleb128 .LEHB17-.LFB1803
	.uleb128 .LEHE17-.LEHB17
	.uleb128 .L226-.LFB1803
	.uleb128 0
	.uleb128 .LEHB18-.LFB1803
	.uleb128 .LEHE18-.LEHB18
	.uleb128 .L227-.LFB1803
	.uleb128 0
	.uleb128 .LEHB19-.LFB1803
	.uleb128 .LEHE19-.LEHB19
	.uleb128 .L228-.LFB1803
	.uleb128 0
	.uleb128 .LEHB20-.LFB1803
	.uleb128 .LEHE20-.LEHB20
	.uleb128 0
	.uleb128 0
.LLSDACSE1803:
	.text
	.seh_endproc
	.section .rdata,"dr"
.LC20:
	.ascii "1 32 8 8 lock:219\0"
	.text
	.align 2
	.globl	_ZN3Log5flushEv
	.def	_ZN3Log5flushEv;	.scl	2;	.type	32;	.endef
	.seh_proc	_ZN3Log5flushEv
_ZN3Log5flushEv:
.LASANPC1804:
.LFB1804:
	.loc 7 218 1
	.cfi_startproc
	pushq	%rbp
	.seh_pushreg	%rbp
	.cfi_def_cfa_offset 16
	.cfi_offset 6, -16
	pushq	%r12
	.seh_pushreg	%r12
	.cfi_def_cfa_offset 24
	.cfi_offset 12, -24
	pushq	%rdi
	.seh_pushreg	%rdi
	.cfi_def_cfa_offset 32
	.cfi_offset 5, -32
	pushq	%rsi
	.seh_pushreg	%rsi
	.cfi_def_cfa_offset 40
	.cfi_offset 4, -40
	pushq	%rbx
	.seh_pushreg	%rbx
	.cfi_def_cfa_offset 48
	.cfi_offset 3, -48
	subq	$96, %rsp
	.seh_stackalloc	96
	.cfi_def_cfa_offset 144
	leaq	96(%rsp), %rbp
	.seh_setframe	%rbp, 96
	.cfi_def_cfa 6, 48
	.seh_endprologue
	movq	%rcx, 48(%rbp)
	leaq	-64(%rbp), %rbx
	movq	%rbx, %r12
	movq	.refptr.__asan_option_detect_stack_use_after_return(%rip), %rax
	cmpl	$0, (%rax)
	je	.L231
	movl	$64, %ecx
	call	__asan_stack_malloc_0
	testq	%rax, %rax
	je	.L231
	movq	%rax, %rbx
.L231:
	leaq	64(%rbx), %rax
	movq	%rax, %rdi
	movq	$1102416563, (%rbx)
	leaq	.LC20(%rip), %rax
	movq	%rax, 8(%rbx)
	leaq	.LASANPC1804(%rip), %rax
	movq	%rax, 16(%rbx)
	movq	%rbx, %rsi
	shrq	$3, %rsi
	movl	$-235802127, 2147450880(%rsi)
	movl	$-202116352, 2147450884(%rsi)
	.loc 7 219 23 discriminator 1
	movq	48(%rbp), %rax
	leaq	320(%rax), %rdx
	.loc 7 219 30 discriminator 1
	leaq	-32(%rdi), %rax
	movq	%rax, %rcx
.LEHB21:
	call	_ZN12locker_guardC1ER6locker
.LEHE21:
	.loc 7 220 9
	movq	48(%rbp), %rax
	addq	$288, %rax
	movq	%rax, %rdx
	shrq	$3, %rdx
	addq	$2147450880, %rdx
	movzbl	(%rdx), %edx
	testb	%dl, %dl
	je	.L235
	movq	%rax, %rcx
	call	__asan_report_load8
.L235:
	movq	48(%rbp), %rax
	movq	288(%rax), %rax
	.loc 7 220 5
	testq	%rax, %rax
	je	.L236
	.loc 7 222 15
	movq	48(%rbp), %rax
	movq	288(%rax), %rax
	movq	%rax, %rcx
.LEHB22:
	call	fflush
.LEHE22:
.L236:
	.loc 7 224 1
	leaq	-32(%rdi), %rax
	movq	%rax, %rcx
	call	_ZN12locker_guardD1Ev
	.loc 7 218 1
	cmpq	%rbx, %r12
	je	.L232
	jmp	.L239
.L238:
	.loc 7 224 1
	movq	%rax, %rbx
	leaq	-32(%rdi), %rax
	movq	%rax, %rcx
	call	_ZN12locker_guardD1Ev
	call	__asan_handle_no_return
	movq	%rbx, %rcx
.LEHB23:
	call	_Unwind_Resume
.LEHE23:
.L239:
	.loc 7 218 1
	movq	$1172321806, (%rbx)
	movabsq	$-723401728380766731, %rax
	movq	%rax, 2147450880(%rsi)
	movq	56(%rbx), %rax
	movb	$0, (%rax)
	jmp	.L233
.L232:
	movq	$0, 2147450880(%rsi)
.L233:
	.loc 7 224 1
	addq	$96, %rsp
	popq	%rbx
	.cfi_restore 3
	popq	%rsi
	.cfi_restore 4
	popq	%rdi
	.cfi_restore 5
	popq	%r12
	.cfi_restore 12
	popq	%rbp
	.cfi_restore 6
	.cfi_def_cfa 7, -56
	ret
	.cfi_endproc
.LFE1804:
	.seh_handler	__gxx_personality_seh0, @unwind, @except
	.seh_handlerdata
.LLSDA1804:
	.byte	0xff
	.byte	0xff
	.byte	0x1
	.uleb128 .LLSDACSE1804-.LLSDACSB1804
.LLSDACSB1804:
	.uleb128 .LEHB21-.LFB1804
	.uleb128 .LEHE21-.LEHB21
	.uleb128 0
	.uleb128 0
	.uleb128 .LEHB22-.LFB1804
	.uleb128 .LEHE22-.LEHB22
	.uleb128 .L238-.LFB1804
	.uleb128 0
	.uleb128 .LEHB23-.LFB1804
	.uleb128 .LEHE23-.LEHB23
	.uleb128 0
	.uleb128 0
.LLSDACSE1804:
	.text
	.seh_endproc
	.section	.text$_ZNKSt7__cxx1112basic_stringIcSt11char_traitsIcESaIcEE5c_strEv,"x"
	.linkonce discard
	.align 2
	.globl	_ZNKSt7__cxx1112basic_stringIcSt11char_traitsIcESaIcEE5c_strEv
	.def	_ZNKSt7__cxx1112basic_stringIcSt11char_traitsIcESaIcEE5c_strEv;	.scl	2;	.type	32;	.endef
	.seh_proc	_ZNKSt7__cxx1112basic_stringIcSt11char_traitsIcESaIcEE5c_strEv
_ZNKSt7__cxx1112basic_stringIcSt11char_traitsIcESaIcEE5c_strEv:
.LASANPC1805:
.LFB1805:
	.file 8 "D:/MSYS2_0/ucrt64/include/c++/15.2.0/bits/basic_string.h"
	.loc 8 2873 7
	.cfi_startproc
	pushq	%rbp
	.seh_pushreg	%rbp
	.cfi_def_cfa_offset 16
	.cfi_offset 6, -16
	movq	%rsp, %rbp
	.seh_setframe	%rbp, 0
	.cfi_def_cfa_register 6
	subq	$32, %rsp
	.seh_stackalloc	32
	.seh_endprologue
	movq	%rcx, 16(%rbp)
	.loc 8 2874 23
	movq	16(%rbp), %rax
	movq	%rax, %rcx
	call	_ZNKSt7__cxx1112basic_stringIcSt11char_traitsIcESaIcEE7_M_dataEv
	.loc 8 2874 27
	addq	$32, %rsp
	popq	%rbp
	.cfi_restore 6
	.cfi_def_cfa 7, 8
	ret
	.cfi_endproc
.LFE1805:
	.seh_endproc
	.section	.text$_ZNSt7__cxx1112basic_stringIcSt11char_traitsIcESaIcEE12_Alloc_hiderD1Ev,"x"
	.linkonce discard
	.align 2
	.globl	_ZNSt7__cxx1112basic_stringIcSt11char_traitsIcESaIcEE12_Alloc_hiderD1Ev
	.def	_ZNSt7__cxx1112basic_stringIcSt11char_traitsIcESaIcEE12_Alloc_hiderD1Ev;	.scl	2;	.type	32;	.endef
	.seh_proc	_ZNSt7__cxx1112basic_stringIcSt11char_traitsIcESaIcEE12_Alloc_hiderD1Ev
_ZNSt7__cxx1112basic_stringIcSt11char_traitsIcESaIcEE12_Alloc_hiderD1Ev:
.LASANPC1882:
.LFB1882:
	.loc 8 197 14
	.cfi_startproc
	pushq	%rbp
	.seh_pushreg	%rbp
	.cfi_def_cfa_offset 16
	.cfi_offset 6, -16
	movq	%rsp, %rbp
	.seh_setframe	%rbp, 0
	.cfi_def_cfa_register 6
	subq	$48, %rsp
	.seh_stackalloc	48
	.seh_endprologue
	movq	%rcx, 16(%rbp)
	movq	16(%rbp), %rax
	movq	%rax, -8(%rbp)
.LBB133:
.LBB134:
.LBB135:
.LBB136:
	.file 9 "D:/MSYS2_0/ucrt64/include/c++/15.2.0/bits/allocator.h"
	.loc 9 189 39
	movq	-8(%rbp), %rax
	movq	%rax, %rcx
	call	_ZNSt15__new_allocatorIcED2Ev
.LBE136:
	nop
.LBE135:
.LBE134:
.LBE133:
	.loc 8 197 14
	nop
	addq	$48, %rsp
	popq	%rbp
	.cfi_restore 6
	.cfi_def_cfa 7, 8
	ret
	.cfi_endproc
.LFE1882:
	.seh_endproc
	.section .rdata,"dr"
.LC21:
	.ascii "1 32 1 9 <unknown>\0"
	.section	.text$_ZNSt7__cxx1112basic_stringIcSt11char_traitsIcESaIcEEC1Ev,"x"
	.linkonce discard
	.align 2
	.globl	_ZNSt7__cxx1112basic_stringIcSt11char_traitsIcESaIcEEC1Ev
	.def	_ZNSt7__cxx1112basic_stringIcSt11char_traitsIcESaIcEEC1Ev;	.scl	2;	.type	32;	.endef
	.seh_proc	_ZNSt7__cxx1112basic_stringIcSt11char_traitsIcESaIcEEC1Ev
_ZNSt7__cxx1112basic_stringIcSt11char_traitsIcESaIcEEC1Ev:
.LASANPC1884:
.LFB1884:
	.loc 8 585 7
	.cfi_startproc
	pushq	%rbp
	.seh_pushreg	%rbp
	.cfi_def_cfa_offset 16
	.cfi_offset 6, -16
	pushq	%r13
	.seh_pushreg	%r13
	.cfi_def_cfa_offset 24
	.cfi_offset 13, -24
	pushq	%r12
	.seh_pushreg	%r12
	.cfi_def_cfa_offset 32
	.cfi_offset 12, -32
	pushq	%rdi
	.seh_pushreg	%rdi
	.cfi_def_cfa_offset 40
	.cfi_offset 5, -40
	pushq	%rsi
	.seh_pushreg	%rsi
	.cfi_def_cfa_offset 48
	.cfi_offset 4, -48
	pushq	%rbx
	.seh_pushreg	%rbx
	.cfi_def_cfa_offset 56
	.cfi_offset 3, -56
	subq	$120, %rsp
	.seh_stackalloc	120
	.cfi_def_cfa_offset 176
	leaq	112(%rsp), %rbp
	.seh_setframe	%rbp, 112
	.cfi_def_cfa 6, 64
	.seh_endprologue
	movq	%rcx, 64(%rbp)
	leaq	-64(%rbp), %rbx
	movq	%rbx, %r13
	movq	.refptr.__asan_option_detect_stack_use_after_return(%rip), %rax
	cmpl	$0, (%rax)
	je	.L243
	movl	$64, %ecx
	call	__asan_stack_malloc_0
	testq	%rax, %rax
	je	.L243
	movq	%rax, %rbx
.L243:
	leaq	64(%rbx), %rax
	movq	%rax, %rdi
	movq	$1102416563, (%rbx)
	leaq	.LC21(%rip), %rax
	movq	%rax, 8(%rbx)
	leaq	.LASANPC1884(%rip), %rax
	movq	%rax, 16(%rbx)
	movq	%rbx, %rsi
	shrq	$3, %rsi
	movl	$-235802127, 2147450880(%rsi)
	movl	$-202116351, 2147450884(%rsi)
.LBB137:
	.loc 8 590 9
	movq	64(%rbp), %r12
	leaq	-32(%rdi), %rax
	movq	%rax, -72(%rbp)
.LBB138:
.LBB139:
.LBB140:
.LBB141:
.LBB142:
	.file 10 "D:/MSYS2_0/ucrt64/include/c++/15.2.0/bits/new_allocator.h"
	.loc 10 88 49
	nop
.LBE142:
.LBE141:
.LBE140:
	.loc 9 168 38
	nop
.LBE139:
.LBE138:
	.loc 8 590 9 discriminator 2
	movq	64(%rbp), %rax
	movq	%rax, %rcx
	call	_ZNSt7__cxx1112basic_stringIcSt11char_traitsIcESaIcEE13_M_local_dataEv
	.loc 8 590 9 is_stmt 0 discriminator 3
	leaq	-32(%rdi), %rdx
	movq	%rdx, %r8
	movq	%rax, %rdx
	movq	%r12, %rcx
	call	_ZNSt7__cxx1112basic_stringIcSt11char_traitsIcESaIcEE12_Alloc_hiderC1EPcOS3_
.LBB143:
.LBB144:
.LBB145:
	.loc 9 189 39 is_stmt 1
	leaq	-32(%rdi), %rax
	movq	%rax, %rcx
	call	_ZNSt15__new_allocatorIcED2Ev
.LBE145:
	nop
.LBE144:
.LBE143:
	.loc 8 590 9 discriminator 5
	leaq	-32(%rdi), %rax
	shrq	$3, %rax
	addq	$2147450880, %rax
	movb	$-8, (%rax)
	movq	64(%rbp), %rax
	movq	%rax, -80(%rbp)
.LBB146:
.LBB147:
	.loc 8 378 7
	nop
.LBE147:
.LBE146:
	.loc 8 593 15
	movq	64(%rbp), %rax
	movl	$0, %edx
	movq	%rax, %rcx
	call	_ZNSt7__cxx1112basic_stringIcSt11char_traitsIcESaIcEE13_M_set_lengthEy
.LBE137:
	.loc 8 594 7
	nop
	.loc 8 585 7
	cmpq	%rbx, %r13
	je	.L244
	movq	$1172321806, (%rbx)
	movabsq	$-723401728380766731, %rax
	movq	%rax, 2147450880(%rsi)
	movq	56(%rbx), %rax
	movb	$0, (%rax)
	jmp	.L245
.L244:
	movq	$0, 2147450880(%rsi)
.L245:
	.loc 8 594 7
	addq	$120, %rsp
	popq	%rbx
	.cfi_restore 3
	popq	%rsi
	.cfi_restore 4
	popq	%rdi
	.cfi_restore 5
	popq	%r12
	.cfi_restore 12
	popq	%r13
	.cfi_restore 13
	popq	%rbp
	.cfi_restore 6
	.cfi_def_cfa 7, -72
	ret
	.cfi_endproc
.LFE1884:
	.seh_handler	__gxx_personality_seh0, @unwind, @except
	.seh_handlerdata
.LLSDA1884:
	.byte	0xff
	.byte	0xff
	.byte	0x1
	.uleb128 .LLSDACSE1884-.LLSDACSB1884
.LLSDACSB1884:
.LLSDACSE1884:
	.section	.text$_ZNSt7__cxx1112basic_stringIcSt11char_traitsIcESaIcEEC1Ev,"x"
	.linkonce discard
	.seh_endproc
	.section	.text$_ZNSt7__cxx1112basic_stringIcSt11char_traitsIcESaIcEED1Ev,"x"
	.linkonce discard
	.align 2
	.globl	_ZNSt7__cxx1112basic_stringIcSt11char_traitsIcESaIcEED1Ev
	.def	_ZNSt7__cxx1112basic_stringIcSt11char_traitsIcESaIcEED1Ev;	.scl	2;	.type	32;	.endef
	.seh_proc	_ZNSt7__cxx1112basic_stringIcSt11char_traitsIcESaIcEED1Ev
_ZNSt7__cxx1112basic_stringIcSt11char_traitsIcESaIcEED1Ev:
.LASANPC1887:
.LFB1887:
	.loc 8 895 7
	.cfi_startproc
	pushq	%rbp
	.seh_pushreg	%rbp
	.cfi_def_cfa_offset 16
	.cfi_offset 6, -16
	movq	%rsp, %rbp
	.seh_setframe	%rbp, 0
	.cfi_def_cfa_register 6
	subq	$32, %rsp
	.seh_stackalloc	32
	.seh_endprologue
	movq	%rcx, 16(%rbp)
.LBB148:
	.loc 8 896 19
	movq	16(%rbp), %rax
	movq	%rax, %rcx
	call	_ZNSt7__cxx1112basic_stringIcSt11char_traitsIcESaIcEE10_M_disposeEv
	.loc 8 896 23 discriminator 1
	movq	16(%rbp), %rax
	movq	%rax, %rcx
	call	_ZNSt7__cxx1112basic_stringIcSt11char_traitsIcESaIcEE12_Alloc_hiderD1Ev
.LBE148:
	.loc 8 896 23 is_stmt 0
	nop
	addq	$32, %rsp
	popq	%rbp
	.cfi_restore 6
	.cfi_def_cfa 7, 8
	ret
	.cfi_endproc
.LFE1887:
	.seh_handler	__gxx_personality_seh0, @unwind, @except
	.seh_handlerdata
.LLSDA1887:
	.byte	0xff
	.byte	0xff
	.byte	0x1
	.uleb128 .LLSDACSE1887-.LLSDACSB1887
.LLSDACSB1887:
.LLSDACSE1887:
	.section	.text$_ZNSt7__cxx1112basic_stringIcSt11char_traitsIcESaIcEED1Ev,"x"
	.linkonce discard
	.seh_endproc
	.section	.text$_ZNKSt7__cxx1112basic_stringIcSt11char_traitsIcESaIcEE4sizeEv,"x"
	.linkonce discard
	.align 2
	.globl	_ZNKSt7__cxx1112basic_stringIcSt11char_traitsIcESaIcEE4sizeEv
	.def	_ZNKSt7__cxx1112basic_stringIcSt11char_traitsIcESaIcEE4sizeEv;	.scl	2;	.type	32;	.endef
	.seh_proc	_ZNKSt7__cxx1112basic_stringIcSt11char_traitsIcESaIcEE4sizeEv
_ZNKSt7__cxx1112basic_stringIcSt11char_traitsIcESaIcEE4sizeEv:
.LASANPC1995:
.LFB1995:
	.loc 8 1163 7 is_stmt 1
	.cfi_startproc
	pushq	%rbp
	.seh_pushreg	%rbp
	.cfi_def_cfa_offset 16
	.cfi_offset 6, -16
	movq	%rsp, %rbp
	.seh_setframe	%rbp, 0
	.cfi_def_cfa_register 6
	subq	$48, %rsp
	.seh_stackalloc	48
	.seh_endprologue
	movq	%rcx, 16(%rbp)
	.loc 8 1165 12
	movq	16(%rbp), %rax
	addq	$8, %rax
	movq	%rax, %rdx
	shrq	$3, %rdx
	addq	$2147450880, %rdx
	movzbl	(%rdx), %edx
	testb	%dl, %dl
	je	.L249
	movq	%rax, %rcx
	call	__asan_report_load8
.L249:
	movq	16(%rbp), %rax
	movq	8(%rax), %rax
	movq	%rax, -8(%rbp)
	.loc 8 1166 22
	movq	16(%rbp), %rax
	movq	%rax, %rcx
	call	_ZNKSt7__cxx1112basic_stringIcSt11char_traitsIcESaIcEE8max_sizeEv
	.loc 8 1166 11 discriminator 1
	cmpq	-8(%rbp), %rax
	setb	%al
	.loc 8 1166 2 discriminator 1
	testb	%al, %al
	.loc 8 1168 9
	movq	-8(%rbp), %rax
	.loc 8 1169 7
	addq	$48, %rsp
	popq	%rbp
	.cfi_restore 6
	.cfi_def_cfa 7, 8
	ret
	.cfi_endproc
.LFE1995:
	.seh_endproc
	.section	.text$_ZN11block_queueINSt7__cxx1112basic_stringIcSt11char_traitsIcESaIcEEEE3popERS5_,"x"
	.linkonce discard
	.align 2
	.globl	_ZN11block_queueINSt7__cxx1112basic_stringIcSt11char_traitsIcESaIcEEEE3popERS5_
	.def	_ZN11block_queueINSt7__cxx1112basic_stringIcSt11char_traitsIcESaIcEEEE3popERS5_;	.scl	2;	.type	32;	.endef
	.seh_proc	_ZN11block_queueINSt7__cxx1112basic_stringIcSt11char_traitsIcESaIcEEEE3popERS5_
_ZN11block_queueINSt7__cxx1112basic_stringIcSt11char_traitsIcESaIcEEEE3popERS5_:
.LASANPC2024:
.LFB2024:
	.file 11 "log/block_queue.h"
	.loc 11 156 10
	.cfi_startproc
	pushq	%rbp
	.seh_pushreg	%rbp
	.cfi_def_cfa_offset 16
	.cfi_offset 6, -16
	pushq	%rbx
	.seh_pushreg	%rbx
	.cfi_def_cfa_offset 24
	.cfi_offset 3, -24
	subq	$40, %rsp
	.seh_stackalloc	40
	.cfi_def_cfa_offset 64
	leaq	32(%rsp), %rbp
	.seh_setframe	%rbp, 32
	.cfi_def_cfa 6, 32
	.seh_endprologue
	movq	%rcx, 32(%rbp)
	movq	%rdx, 40(%rbp)
	.loc 11 159 21
	movq	32(%rbp), %rax
	movq	%rax, %rcx
	call	_ZN6locker4lockEv
	.loc 11 160 9
	jmp	.L253
.L256:
	.loc 11 163 29
	movq	32(%rbp), %rax
	leaq	8(%rax), %rbx
	movq	32(%rbp), %rax
	movq	%rax, %rcx
	call	_ZN6locker3getEv
	.loc 11 163 29 is_stmt 0 discriminator 1
	movq	%rax, %rdx
	movq	%rbx, %rcx
	call	_ZN4cond4waitEPx
	.loc 11 163 29 discriminator 2
	xorl	$1, %eax
	.loc 11 163 13 is_stmt 1 discriminator 2
	testb	%al, %al
	je	.L253
	.loc 11 165 31
	movq	32(%rbp), %rax
	movq	%rax, %rcx
	call	_ZN6locker6unlockEv
	.loc 11 166 24
	movl	$0, %eax
	jmp	.L254
.L253:
	.loc 11 160 16
	movq	32(%rbp), %rax
	addq	$24, %rax
	movq	%rax, %rdx
	movq	%rdx, %rax
	shrq	$3, %rax
	addq	$2147450880, %rax
	movzbl	(%rax), %eax
	testb	%al, %al
	setne	%cl
	cmpb	$3, %al
	setle	%al
	andl	%ecx, %eax
	testb	%al, %al
	je	.L255
	movq	%rdx, %rcx
	call	__asan_report_load4
.L255:
	movq	32(%rbp), %rax
	movl	24(%rax), %eax
	.loc 11 160 23
	testl	%eax, %eax
	jle	.L256
	.loc 11 170 20
	movq	32(%rbp), %rax
	addq	$32, %rax
	movq	%rax, %rdx
	movq	%rdx, %rax
	shrq	$3, %rax
	addq	$2147450880, %rax
	movzbl	(%rax), %eax
	testb	%al, %al
	setne	%cl
	cmpb	$3, %al
	setle	%al
	andl	%ecx, %eax
	testb	%al, %al
	je	.L257
	movq	%rdx, %rcx
	call	__asan_report_load4
.L257:
	movq	32(%rbp), %rax
	movl	32(%rax), %eax
	.loc 11 170 28
	leal	1(%rax), %ecx
	.loc 11 170 35
	movq	32(%rbp), %rax
	addq	$28, %rax
	movq	%rax, %rdx
	shrq	$3, %rdx
	addq	$2147450880, %rdx
	movzbl	(%rdx), %edx
	testb	%dl, %dl
	setne	%r9b
	movq	%rax, %r8
	andl	$7, %r8d
	addl	$3, %r8d
	cmpb	%dl, %r8b
	setge	%dl
	andl	%r9d, %edx
	testb	%dl, %dl
	je	.L258
	movq	%rax, %rcx
	call	__asan_report_load4
.L258:
	movq	32(%rbp), %rax
	movl	28(%rax), %ebx
	.loc 11 170 33
	movl	%ecx, %eax
	cltd
	idivl	%ebx
	movl	%edx, %ecx
	movl	%ecx, %edx
	.loc 11 170 17
	movq	32(%rbp), %rax
	movl	%edx, 32(%rax)
	.loc 11 171 16
	movq	32(%rbp), %rax
	addq	$16, %rax
	movq	%rax, %rdx
	shrq	$3, %rdx
	addq	$2147450880, %rdx
	movzbl	(%rdx), %edx
	testb	%dl, %dl
	je	.L259
	movq	%rax, %rcx
	call	__asan_report_load8
.L259:
	movq	32(%rbp), %rax
	movq	16(%rax), %rdx
	.loc 11 171 24
	movq	32(%rbp), %rax
	movl	32(%rax), %eax
	cltq
	.loc 11 171 23
	salq	$5, %rax
	addq	%rax, %rdx
	.loc 11 171 14
	movq	40(%rbp), %rax
	movq	%rax, %rcx
	call	_ZNSt7__cxx1112basic_stringIcSt11char_traitsIcESaIcEEaSERKS4_
	.loc 11 172 9
	movq	32(%rbp), %rax
	addq	$24, %rax
	movq	%rax, %rdx
	movq	%rdx, %rax
	shrq	$3, %rax
	addq	$2147450880, %rax
	movzbl	(%rax), %eax
	testb	%al, %al
	setne	%cl
	cmpb	$3, %al
	setle	%al
	andl	%ecx, %eax
	testb	%al, %al
	je	.L260
	movq	%rdx, %rcx
	call	__asan_report_load4
.L260:
	movq	32(%rbp), %rax
	movl	24(%rax), %eax
	leal	-1(%rax), %edx
	movq	32(%rbp), %rax
	movl	%edx, 24(%rax)
	.loc 11 173 23
	movq	32(%rbp), %rax
	movq	%rax, %rcx
	call	_ZN6locker6unlockEv
	.loc 11 174 16
	movl	$1, %eax
.L254:
	.loc 11 175 5
	addq	$40, %rsp
	popq	%rbx
	.cfi_restore 3
	popq	%rbp
	.cfi_restore 6
	.cfi_def_cfa 7, -24
	ret
	.cfi_endproc
.LFE2024:
	.seh_endproc
	.section	.text$_ZN11block_queueINSt7__cxx1112basic_stringIcSt11char_traitsIcESaIcEEEED1Ev,"x"
	.linkonce discard
	.align 2
	.globl	_ZN11block_queueINSt7__cxx1112basic_stringIcSt11char_traitsIcESaIcEEEED1Ev
	.def	_ZN11block_queueINSt7__cxx1112basic_stringIcSt11char_traitsIcESaIcEEEED1Ev;	.scl	2;	.type	32;	.endef
	.seh_proc	_ZN11block_queueINSt7__cxx1112basic_stringIcSt11char_traitsIcESaIcEEEED1Ev
_ZN11block_queueINSt7__cxx1112basic_stringIcSt11char_traitsIcESaIcEEEED1Ev:
.LASANPC2027:
.LFB2027:
	.loc 11 44 5
	.cfi_startproc
	pushq	%rbp
	.seh_pushreg	%rbp
	.cfi_def_cfa_offset 16
	.cfi_offset 6, -16
	pushq	%rbx
	.seh_pushreg	%rbx
	.cfi_def_cfa_offset 24
	.cfi_offset 3, -24
	subq	$40, %rsp
	.seh_stackalloc	40
	.cfi_def_cfa_offset 64
	leaq	32(%rsp), %rbp
	.seh_setframe	%rbp, 32
	.cfi_def_cfa 6, 32
	.seh_endprologue
	movq	%rcx, 32(%rbp)
.LBB149:
	.loc 11 46 21
	movq	32(%rbp), %rax
	movq	%rax, %rcx
	call	_ZN6locker4lockEv
	.loc 11 47 13
	movq	32(%rbp), %rax
	addq	$16, %rax
	movq	%rax, %rdx
	shrq	$3, %rdx
	addq	$2147450880, %rdx
	movzbl	(%rdx), %edx
	testb	%dl, %dl
	je	.L262
	movq	%rax, %rcx
	call	__asan_report_load8
.L262:
	movq	32(%rbp), %rax
	movq	16(%rax), %rax
	.loc 11 47 9
	testq	%rax, %rax
	je	.L263
	.loc 11 48 23
	movq	32(%rbp), %rax
	movq	16(%rax), %rax
	.loc 11 48 13
	testq	%rax, %rax
	je	.L263
	.loc 11 48 23 discriminator 1
	movq	32(%rbp), %rax
	movq	16(%rax), %r8
	movq	32(%rbp), %rax
	movq	16(%rax), %rax
	.loc 11 48 13 discriminator 1
	subq	$8, %rax
	movq	%rax, %rdx
	movq	%rdx, %rcx
	shrq	$3, %rcx
	addq	$2147450880, %rcx
	movzbl	(%rcx), %ecx
	testb	%cl, %cl
	je	.L264
	movq	%rdx, %rcx
	call	__asan_report_load8
.L264:
	movq	(%rax), %rax
	salq	$5, %rax
	leaq	(%r8,%rax), %rbx
.L267:
	.loc 11 48 23 discriminator 2
	movq	32(%rbp), %rax
	addq	$16, %rax
	movq	%rax, %rdx
	shrq	$3, %rdx
	addq	$2147450880, %rdx
	movzbl	(%rdx), %edx
	testb	%dl, %dl
	je	.L265
	movq	%rax, %rcx
	call	__asan_report_load8
.L265:
	movq	32(%rbp), %rax
	movq	16(%rax), %rax
	cmpq	%rax, %rbx
	je	.L266
	.loc 11 48 13 discriminator 4
	subq	$32, %rbx
	movq	%rbx, %rcx
	call	_ZNSt7__cxx1112basic_stringIcSt11char_traitsIcESaIcEED1Ev
	jmp	.L267
.L266:
	.loc 11 48 23
	movq	32(%rbp), %rax
	addq	$16, %rax
	movq	%rax, %rdx
	shrq	$3, %rdx
	addq	$2147450880, %rdx
	movzbl	(%rdx), %edx
	testb	%dl, %dl
	je	.L268
	movq	%rax, %rcx
	call	__asan_report_load8
.L268:
	movq	32(%rbp), %rax
	movq	16(%rax), %rax
	.loc 11 48 13
	subq	$8, %rax
	movq	%rax, %rcx
	call	_ZdaPv
.L263:
	.loc 11 50 23
	movq	32(%rbp), %rax
	movq	%rax, %rcx
	call	_ZN6locker6unlockEv
	.loc 11 51 5
	movq	32(%rbp), %rax
	addq	$8, %rax
	movq	%rax, %rcx
	call	_ZN4condD1Ev
	.loc 11 51 5 is_stmt 0 discriminator 1
	movq	32(%rbp), %rax
	movq	%rax, %rcx
	call	_ZN6lockerD1Ev
.LBE149:
	.loc 11 51 5
	nop
	addq	$40, %rsp
	popq	%rbx
	.cfi_restore 3
	popq	%rbp
	.cfi_restore 6
	.cfi_def_cfa 7, -24
	ret
	.cfi_endproc
.LFE2027:
	.seh_handler	__gxx_personality_seh0, @unwind, @except
	.seh_handlerdata
.LLSDA2027:
	.byte	0xff
	.byte	0xff
	.byte	0x1
	.uleb128 .LLSDACSE2027-.LLSDACSB2027
.LLSDACSB2027:
.LLSDACSE2027:
	.section	.text$_ZN11block_queueINSt7__cxx1112basic_stringIcSt11char_traitsIcESaIcEEEED1Ev,"x"
	.linkonce discard
	.seh_endproc
	.section	.text$_ZN11block_queueINSt7__cxx1112basic_stringIcSt11char_traitsIcESaIcEEEEC1Ei,"x"
	.linkonce discard
	.align 2
	.globl	_ZN11block_queueINSt7__cxx1112basic_stringIcSt11char_traitsIcESaIcEEEEC1Ei
	.def	_ZN11block_queueINSt7__cxx1112basic_stringIcSt11char_traitsIcESaIcEEEEC1Ei;	.scl	2;	.type	32;	.endef
	.seh_proc	_ZN11block_queueINSt7__cxx1112basic_stringIcSt11char_traitsIcESaIcEEEEC1Ei
_ZN11block_queueINSt7__cxx1112basic_stringIcSt11char_traitsIcESaIcEEEEC1Ei:
.LASANPC2030:
.LFB2030:
	.loc 11 21 5 is_stmt 1
	.cfi_startproc
	pushq	%rbp
	.seh_pushreg	%rbp
	.cfi_def_cfa_offset 16
	.cfi_offset 6, -16
	pushq	%rdi
	.seh_pushreg	%rdi
	.cfi_def_cfa_offset 24
	.cfi_offset 5, -24
	pushq	%rsi
	.seh_pushreg	%rsi
	.cfi_def_cfa_offset 32
	.cfi_offset 4, -32
	pushq	%rbx
	.seh_pushreg	%rbx
	.cfi_def_cfa_offset 40
	.cfi_offset 3, -40
	subq	$40, %rsp
	.seh_stackalloc	40
	.cfi_def_cfa_offset 80
	leaq	32(%rsp), %rbp
	.seh_setframe	%rbp, 32
	.cfi_def_cfa 6, 48
	.seh_endprologue
	movq	%rcx, 48(%rbp)
	movl	%edx, 56(%rbp)
.LBB150:
	.loc 11 22 5
	movq	48(%rbp), %rax
	movq	%rax, %rcx
.LEHB24:
	call	_ZN6lockerC1Ev
.LEHE24:
	.loc 11 22 5 is_stmt 0 discriminator 1
	movq	48(%rbp), %rax
	addq	$8, %rax
	movq	%rax, %rcx
.LEHB25:
	call	_ZN4condC1Ev
.LEHE25:
	.loc 11 23 9 is_stmt 1
	cmpl	$0, 56(%rbp)
	jg	.L270
	.loc 11 25 17
	call	__asan_handle_no_return
	movl	$-1, %ecx
	call	exit
.L270:
	.loc 11 28 20
	movq	48(%rbp), %rax
	addq	$28, %rax
	movq	%rax, %rdx
	shrq	$3, %rdx
	addq	$2147450880, %rdx
	movzbl	(%rdx), %edx
	testb	%dl, %dl
	setne	%r8b
	movq	%rax, %rcx
	andl	$7, %ecx
	addl	$3, %ecx
	cmpb	%dl, %cl
	setge	%dl
	andl	%r8d, %edx
	testb	%dl, %dl
	je	.L271
	movq	%rax, %rcx
	call	__asan_report_store4
.L271:
	movq	48(%rbp), %rax
	movl	56(%rbp), %edx
	movl	%edx, 28(%rax)
	.loc 11 29 25
	movl	56(%rbp), %eax
	movslq	%eax, %rsi
	.loc 11 29 19
	movabsq	$288230376151711743, %rax
	cmpq	%rsi, %rax
	jb	.L272
	.loc 11 29 19 is_stmt 0 discriminator 1
	movq	%rsi, %rax
	salq	$5, %rax
	addq	$8, %rax
	jmp	.L273
.L272:
	.loc 11 29 19 discriminator 2
	movq	$-1, %rax
.L273:
	.loc 11 29 19 discriminator 4
	movq	%rax, %rcx
.LEHB26:
	call	_Znay
.LEHE26:
	movq	%rax, %rbx
	.loc 11 29 17 is_stmt 1 discriminator 6
	movq	%rbx, %rax
	movq	%rax, %rdx
	shrq	$3, %rdx
	addq	$2147450880, %rdx
	movzbl	(%rdx), %edx
	testb	%dl, %dl
	je	.L274
	movq	%rax, %rcx
	call	__asan_report_store8
.L274:
	movq	%rsi, (%rbx)
	.loc 11 29 19 discriminator 6
	leaq	8(%rbx), %rax
	leaq	-1(%rsi), %rdx
	movq	%rdx, %rsi
	movq	%rax, %rdi
	.loc 11 29 19 is_stmt 0
	jmp	.L275
.L276:
	.loc 11 29 19 discriminator 10
	movq	%rdi, %rcx
	call	_ZNSt7__cxx1112basic_stringIcSt11char_traitsIcESaIcEEC1Ev
	subq	$1, %rsi
	addq	$32, %rdi
.L275:
	.loc 11 29 19 discriminator 9
	testq	%rsi, %rsi
	jns	.L276
	.loc 11 29 17 is_stmt 1 discriminator 11
	movl	$0, %r8d
	leaq	8(%rbx), %rdx
	movq	48(%rbp), %rax
	addq	$16, %rax
	movq	%rax, %rcx
	shrq	$3, %rcx
	addq	$2147450880, %rcx
	movzbl	(%rcx), %ecx
	testb	%cl, %cl
	je	.L277
	movq	%rax, %rcx
	call	__asan_report_store8
.L277:
	movq	48(%rbp), %rax
	movq	%rdx, 16(%rax)
	testb	%r8b, %r8b
	je	.L287
	.loc 11 29 19 discriminator 12
	movq	%rbx, %rcx
	call	_ZdaPv
.L287:
	.loc 11 29 17
	nop
	.loc 11 30 16
	movq	48(%rbp), %rax
	addq	$24, %rax
	movq	%rax, %rdx
	movq	%rdx, %rax
	shrq	$3, %rax
	addq	$2147450880, %rax
	movzbl	(%rax), %eax
	testb	%al, %al
	setne	%cl
	cmpb	$3, %al
	setle	%al
	andl	%ecx, %eax
	testb	%al, %al
	je	.L279
	movq	%rdx, %rcx
	call	__asan_report_store4
.L279:
	movq	48(%rbp), %rax
	movl	$0, 24(%rax)
	.loc 11 31 17
	movq	48(%rbp), %rax
	addq	$32, %rax
	movq	%rax, %rdx
	movq	%rdx, %rax
	shrq	$3, %rax
	addq	$2147450880, %rax
	movzbl	(%rax), %eax
	testb	%al, %al
	setne	%cl
	cmpb	$3, %al
	setle	%al
	andl	%ecx, %eax
	testb	%al, %al
	je	.L280
	movq	%rdx, %rcx
	call	__asan_report_store4
.L280:
	movq	48(%rbp), %rax
	movl	$-1, 32(%rax)
	.loc 11 32 16
	movq	48(%rbp), %rax
	addq	$36, %rax
	movq	%rax, %rdx
	shrq	$3, %rdx
	addq	$2147450880, %rdx
	movzbl	(%rdx), %edx
	testb	%dl, %dl
	setne	%r8b
	movq	%rax, %rcx
	andl	$7, %ecx
	addl	$3, %ecx
	cmpb	%dl, %cl
	setge	%dl
	andl	%r8d, %edx
	testb	%dl, %dl
	je	.L281
	movq	%rax, %rcx
	call	__asan_report_store4
.L281:
	movq	48(%rbp), %rax
	movl	$-1, 36(%rax)
.LBE150:
	.loc 11 33 5
	jmp	.L286
.L285:
.LBB151:
	movq	%rax, %rbx
	movq	48(%rbp), %rax
	addq	$8, %rax
	movq	%rax, %rcx
	call	_ZN4condD1Ev
	jmp	.L283
.L284:
	movq	%rax, %rbx
.L283:
	movq	48(%rbp), %rax
	movq	%rax, %rcx
	call	_ZN6lockerD1Ev
	call	__asan_handle_no_return
	movq	%rbx, %rcx
.LEHB27:
	call	_Unwind_Resume
	nop
.LEHE27:
.L286:
.LBE151:
	addq	$40, %rsp
	popq	%rbx
	.cfi_restore 3
	popq	%rsi
	.cfi_restore 4
	popq	%rdi
	.cfi_restore 5
	popq	%rbp
	.cfi_restore 6
	.cfi_def_cfa 7, -8
	ret
	.cfi_endproc
.LFE2030:
	.seh_handler	__gxx_personality_seh0, @unwind, @except
	.seh_handlerdata
.LLSDA2030:
	.byte	0xff
	.byte	0xff
	.byte	0x1
	.uleb128 .LLSDACSE2030-.LLSDACSB2030
.LLSDACSB2030:
	.uleb128 .LEHB24-.LFB2030
	.uleb128 .LEHE24-.LEHB24
	.uleb128 0
	.uleb128 0
	.uleb128 .LEHB25-.LFB2030
	.uleb128 .LEHE25-.LEHB25
	.uleb128 .L284-.LFB2030
	.uleb128 0
	.uleb128 .LEHB26-.LFB2030
	.uleb128 .LEHE26-.LEHB26
	.uleb128 .L285-.LFB2030
	.uleb128 0
	.uleb128 .LEHB27-.LFB2030
	.uleb128 .LEHE27-.LEHB27
	.uleb128 0
	.uleb128 0
.LLSDACSE2030:
	.section	.text$_ZN11block_queueINSt7__cxx1112basic_stringIcSt11char_traitsIcESaIcEEEEC1Ei,"x"
	.linkonce discard
	.seh_endproc
	.section	.text$_ZNSt7__cxx1112basic_stringIcSt11char_traitsIcESaIcEEaSEPKc,"x"
	.linkonce discard
	.align 2
	.globl	_ZNSt7__cxx1112basic_stringIcSt11char_traitsIcESaIcEEaSEPKc
	.def	_ZNSt7__cxx1112basic_stringIcSt11char_traitsIcESaIcEEaSEPKc;	.scl	2;	.type	32;	.endef
	.seh_proc	_ZNSt7__cxx1112basic_stringIcSt11char_traitsIcESaIcEEaSEPKc
_ZNSt7__cxx1112basic_stringIcSt11char_traitsIcESaIcEEaSEPKc:
.LASANPC2031:
.LFB2031:
	.loc 8 915 7
	.cfi_startproc
	pushq	%rbp
	.seh_pushreg	%rbp
	.cfi_def_cfa_offset 16
	.cfi_offset 6, -16
	movq	%rsp, %rbp
	.seh_setframe	%rbp, 0
	.cfi_def_cfa_register 6
	subq	$32, %rsp
	.seh_stackalloc	32
	.seh_endprologue
	movq	%rcx, 16(%rbp)
	movq	%rdx, 24(%rbp)
	.loc 8 916 28
	movq	24(%rbp), %rdx
	movq	16(%rbp), %rax
	movq	%rax, %rcx
	call	_ZNSt7__cxx1112basic_stringIcSt11char_traitsIcESaIcEE6assignEPKc
	.loc 8 916 35
	addq	$32, %rsp
	popq	%rbp
	.cfi_restore 6
	.cfi_def_cfa 7, 8
	ret
	.cfi_endproc
.LFE2031:
	.seh_endproc
	.section	.text$_ZN11block_queueINSt7__cxx1112basic_stringIcSt11char_traitsIcESaIcEEEE4fullEv,"x"
	.linkonce discard
	.align 2
	.globl	_ZN11block_queueINSt7__cxx1112basic_stringIcSt11char_traitsIcESaIcEEEE4fullEv
	.def	_ZN11block_queueINSt7__cxx1112basic_stringIcSt11char_traitsIcESaIcEEEE4fullEv;	.scl	2;	.type	32;	.endef
	.seh_proc	_ZN11block_queueINSt7__cxx1112basic_stringIcSt11char_traitsIcESaIcEEEE4fullEv
_ZN11block_queueINSt7__cxx1112basic_stringIcSt11char_traitsIcESaIcEEEE4fullEv:
.LASANPC2032:
.LFB2032:
	.loc 11 54 10
	.cfi_startproc
	pushq	%rbp
	.seh_pushreg	%rbp
	.cfi_def_cfa_offset 16
	.cfi_offset 6, -16
	movq	%rsp, %rbp
	.seh_setframe	%rbp, 0
	.cfi_def_cfa_register 6
	subq	$32, %rsp
	.seh_stackalloc	32
	.seh_endprologue
	movq	%rcx, 16(%rbp)
	.loc 11 56 21
	movq	16(%rbp), %rax
	movq	%rax, %rcx
	call	_ZN6locker4lockEv
	.loc 11 57 13
	movq	16(%rbp), %rax
	addq	$24, %rax
	movq	%rax, %rdx
	movq	%rdx, %rax
	shrq	$3, %rax
	addq	$2147450880, %rax
	movzbl	(%rax), %eax
	testb	%al, %al
	setne	%cl
	cmpb	$3, %al
	setle	%al
	andl	%ecx, %eax
	testb	%al, %al
	je	.L291
	movq	%rdx, %rcx
	call	__asan_report_load4
.L291:
	movq	16(%rbp), %rax
	movl	24(%rax), %ecx
	.loc 11 57 23
	movq	16(%rbp), %rax
	addq	$28, %rax
	movq	%rax, %rdx
	shrq	$3, %rdx
	addq	$2147450880, %rdx
	movzbl	(%rdx), %edx
	testb	%dl, %dl
	setne	%r9b
	movq	%rax, %r8
	andl	$7, %r8d
	addl	$3, %r8d
	cmpb	%dl, %r8b
	setge	%dl
	andl	%r9d, %edx
	testb	%dl, %dl
	je	.L292
	movq	%rax, %rcx
	call	__asan_report_load4
.L292:
	movq	16(%rbp), %rax
	movl	28(%rax), %eax
	.loc 11 57 9
	cmpl	%eax, %ecx
	jl	.L293
	.loc 11 60 27
	movq	16(%rbp), %rax
	movq	%rax, %rcx
	call	_ZN6locker6unlockEv
	.loc 11 61 20
	movl	$1, %eax
	jmp	.L294
.L293:
	.loc 11 63 23
	movq	16(%rbp), %rax
	movq	%rax, %rcx
	call	_ZN6locker6unlockEv
	.loc 11 64 16
	movl	$0, %eax
.L294:
	.loc 11 65 5
	addq	$32, %rsp
	popq	%rbp
	.cfi_restore 6
	.cfi_def_cfa 7, 8
	ret
	.cfi_endproc
.LFE2032:
	.seh_endproc
	.section	.text$_ZN11block_queueINSt7__cxx1112basic_stringIcSt11char_traitsIcESaIcEEEE4pushERKS5_,"x"
	.linkonce discard
	.align 2
	.globl	_ZN11block_queueINSt7__cxx1112basic_stringIcSt11char_traitsIcESaIcEEEE4pushERKS5_
	.def	_ZN11block_queueINSt7__cxx1112basic_stringIcSt11char_traitsIcESaIcEEEE4pushERKS5_;	.scl	2;	.type	32;	.endef
	.seh_proc	_ZN11block_queueINSt7__cxx1112basic_stringIcSt11char_traitsIcESaIcEEEE4pushERKS5_
_ZN11block_queueINSt7__cxx1112basic_stringIcSt11char_traitsIcESaIcEEEE4pushERKS5_:
.LASANPC2033:
.LFB2033:
	.loc 11 133 10
	.cfi_startproc
	pushq	%rbp
	.seh_pushreg	%rbp
	.cfi_def_cfa_offset 16
	.cfi_offset 6, -16
	movq	%rsp, %rbp
	.seh_setframe	%rbp, 0
	.cfi_def_cfa_register 6
	subq	$32, %rsp
	.seh_stackalloc	32
	.seh_endprologue
	movq	%rcx, 16(%rbp)
	movq	%rdx, 24(%rbp)
	.loc 11 136 21
	movq	16(%rbp), %rax
	movq	%rax, %rcx
	call	_ZN6locker4lockEv
	.loc 11 137 13
	movq	16(%rbp), %rax
	addq	$24, %rax
	movq	%rax, %rdx
	movq	%rdx, %rax
	shrq	$3, %rax
	addq	$2147450880, %rax
	movzbl	(%rax), %eax
	testb	%al, %al
	setne	%cl
	cmpb	$3, %al
	setle	%al
	andl	%ecx, %eax
	testb	%al, %al
	je	.L296
	movq	%rdx, %rcx
	call	__asan_report_load4
.L296:
	movq	16(%rbp), %rax
	movl	24(%rax), %ecx
	.loc 11 137 23
	movq	16(%rbp), %rax
	addq	$28, %rax
	movq	%rax, %rdx
	shrq	$3, %rdx
	addq	$2147450880, %rdx
	movzbl	(%rdx), %edx
	testb	%dl, %dl
	setne	%r9b
	movq	%rax, %r8
	andl	$7, %r8d
	addl	$3, %r8d
	cmpb	%dl, %r8b
	setge	%dl
	andl	%r9d, %edx
	testb	%dl, %dl
	je	.L297
	movq	%rax, %rcx
	call	__asan_report_load4
.L297:
	movq	16(%rbp), %rax
	movl	28(%rax), %eax
	.loc 11 137 9
	cmpl	%eax, %ecx
	jl	.L298
	.loc 11 140 29
	movq	16(%rbp), %rax
	addq	$8, %rax
	movq	%rax, %rcx
	call	_ZN4cond9broadcastEv
	.loc 11 141 27
	movq	16(%rbp), %rax
	movq	%rax, %rcx
	call	_ZN6locker6unlockEv
	.loc 11 142 20
	movl	$0, %eax
	jmp	.L299
.L298:
	.loc 11 145 19
	movq	16(%rbp), %rax
	addq	$36, %rax
	movq	%rax, %rdx
	shrq	$3, %rdx
	addq	$2147450880, %rdx
	movzbl	(%rdx), %edx
	testb	%dl, %dl
	setne	%r8b
	movq	%rax, %rcx
	andl	$7, %ecx
	addl	$3, %ecx
	cmpb	%dl, %cl
	setge	%dl
	andl	%r8d, %edx
	testb	%dl, %dl
	je	.L300
	movq	%rax, %rcx
	call	__asan_report_load4
.L300:
	movq	16(%rbp), %rax
	movl	36(%rax), %eax
	.loc 11 145 26
	leal	1(%rax), %ecx
	.loc 11 145 33
	movq	16(%rbp), %rax
	addq	$28, %rax
	movq	%rax, %rdx
	shrq	$3, %rdx
	addq	$2147450880, %rdx
	movzbl	(%rdx), %edx
	testb	%dl, %dl
	setne	%r9b
	movq	%rax, %r8
	andl	$7, %r8d
	addl	$3, %r8d
	cmpb	%dl, %r8b
	setge	%dl
	andl	%r9d, %edx
	testb	%dl, %dl
	je	.L301
	movq	%rax, %rcx
	call	__asan_report_load4
.L301:
	movq	16(%rbp), %rax
	movl	28(%rax), %r10d
	.loc 11 145 31
	movl	%ecx, %eax
	cltd
	idivl	%r10d
	movl	%edx, %ecx
	movl	%ecx, %edx
	.loc 11 145 16
	movq	16(%rbp), %rax
	movl	%edx, 36(%rax)
	.loc 11 146 9
	movq	16(%rbp), %rax
	addq	$16, %rax
	movq	%rax, %rdx
	shrq	$3, %rdx
	addq	$2147450880, %rdx
	movzbl	(%rdx), %edx
	testb	%dl, %dl
	je	.L302
	movq	%rax, %rcx
	call	__asan_report_load8
.L302:
	movq	16(%rbp), %rax
	movq	16(%rax), %rdx
	.loc 11 146 17
	movq	16(%rbp), %rax
	movl	36(%rax), %eax
	cltq
	.loc 11 146 16
	salq	$5, %rax
	.loc 11 146 25
	leaq	(%rdx,%rax), %rcx
	movq	24(%rbp), %rax
	movq	%rax, %rdx
	call	_ZNSt7__cxx1112basic_stringIcSt11char_traitsIcESaIcEEaSERKS4_
	.loc 11 148 9
	movq	16(%rbp), %rax
	addq	$24, %rax
	movq	%rax, %rdx
	movq	%rdx, %rax
	shrq	$3, %rax
	addq	$2147450880, %rax
	movzbl	(%rax), %eax
	testb	%al, %al
	setne	%cl
	cmpb	$3, %al
	setle	%al
	andl	%ecx, %eax
	testb	%al, %al
	je	.L303
	movq	%rdx, %rcx
	call	__asan_report_load4
.L303:
	movq	16(%rbp), %rax
	movl	24(%rax), %eax
	leal	1(%rax), %edx
	movq	16(%rbp), %rax
	movl	%edx, 24(%rax)
	.loc 11 150 25
	movq	16(%rbp), %rax
	addq	$8, %rax
	movq	%rax, %rcx
	call	_ZN4cond9broadcastEv
	.loc 11 151 23
	movq	16(%rbp), %rax
	movq	%rax, %rcx
	call	_ZN6locker6unlockEv
	.loc 11 152 16
	movl	$1, %eax
.L299:
	.loc 11 153 5
	addq	$32, %rsp
	popq	%rbp
	.cfi_restore 6
	.cfi_def_cfa 7, 8
	ret
	.cfi_endproc
.LFE2033:
	.seh_endproc
	.section	.text$_ZNKSt7__cxx1112basic_stringIcSt11char_traitsIcESaIcEE7_M_dataEv,"x"
	.linkonce discard
	.align 2
	.globl	_ZNKSt7__cxx1112basic_stringIcSt11char_traitsIcESaIcEE7_M_dataEv
	.def	_ZNKSt7__cxx1112basic_stringIcSt11char_traitsIcESaIcEE7_M_dataEv;	.scl	2;	.type	32;	.endef
	.seh_proc	_ZNKSt7__cxx1112basic_stringIcSt11char_traitsIcESaIcEE7_M_dataEv
_ZNKSt7__cxx1112basic_stringIcSt11char_traitsIcESaIcEE7_M_dataEv:
.LASANPC2034:
.LFB2034:
	.loc 8 238 7
	.cfi_startproc
	pushq	%rbp
	.seh_pushreg	%rbp
	.cfi_def_cfa_offset 16
	.cfi_offset 6, -16
	movq	%rsp, %rbp
	.seh_setframe	%rbp, 0
	.cfi_def_cfa_register 6
	subq	$32, %rsp
	.seh_stackalloc	32
	.seh_endprologue
	movq	%rcx, 16(%rbp)
	.loc 8 239 28
	movq	16(%rbp), %rax
	movq	%rax, %rdx
	shrq	$3, %rdx
	addq	$2147450880, %rdx
	movzbl	(%rdx), %edx
	testb	%dl, %dl
	je	.L305
	movq	%rax, %rcx
	call	__asan_report_load8
.L305:
	movq	16(%rbp), %rax
	movq	(%rax), %rax
	.loc 8 239 34
	addq	$32, %rsp
	popq	%rbp
	.cfi_restore 6
	.cfi_def_cfa 7, 8
	ret
	.cfi_endproc
.LFE2034:
	.seh_endproc
	.section	.text$_ZNSt7__cxx1112basic_stringIcSt11char_traitsIcESaIcEE13_M_local_dataEv,"x"
	.linkonce discard
	.align 2
	.globl	_ZNSt7__cxx1112basic_stringIcSt11char_traitsIcESaIcEE13_M_local_dataEv
	.def	_ZNSt7__cxx1112basic_stringIcSt11char_traitsIcESaIcEE13_M_local_dataEv;	.scl	2;	.type	32;	.endef
	.seh_proc	_ZNSt7__cxx1112basic_stringIcSt11char_traitsIcESaIcEE13_M_local_dataEv
_ZNSt7__cxx1112basic_stringIcSt11char_traitsIcESaIcEE13_M_local_dataEv:
.LASANPC2035:
.LFB2035:
	.loc 8 243 7
	.cfi_startproc
	pushq	%rbp
	.seh_pushreg	%rbp
	.cfi_def_cfa_offset 16
	.cfi_offset 6, -16
	movq	%rsp, %rbp
	.seh_setframe	%rbp, 0
	.cfi_def_cfa_register 6
	subq	$32, %rsp
	.seh_stackalloc	32
	.seh_endprologue
	movq	%rcx, 16(%rbp)
	.loc 8 246 51
	movq	16(%rbp), %rax
	addq	$16, %rax
	.loc 8 246 49
	movq	%rax, %rcx
	call	_ZNSt19__ptr_traits_ptr_toIPccLb0EE10pointer_toERc
	.loc 8 250 7
	addq	$32, %rsp
	popq	%rbp
	.cfi_restore 6
	.cfi_def_cfa 7, 8
	ret
	.cfi_endproc
.LFE2035:
	.seh_endproc
	.section	.text$_ZNSt7__cxx1112basic_stringIcSt11char_traitsIcESaIcEE12_Alloc_hiderC1EPcOS3_,"x"
	.linkonce discard
	.align 2
	.globl	_ZNSt7__cxx1112basic_stringIcSt11char_traitsIcESaIcEE12_Alloc_hiderC1EPcOS3_
	.def	_ZNSt7__cxx1112basic_stringIcSt11char_traitsIcESaIcEE12_Alloc_hiderC1EPcOS3_;	.scl	2;	.type	32;	.endef
	.seh_proc	_ZNSt7__cxx1112basic_stringIcSt11char_traitsIcESaIcEE12_Alloc_hiderC1EPcOS3_
_ZNSt7__cxx1112basic_stringIcSt11char_traitsIcESaIcEE12_Alloc_hiderC1EPcOS3_:
.LASANPC2044:
.LFB2044:
	.loc 8 208 2
	.cfi_startproc
	pushq	%rbp
	.seh_pushreg	%rbp
	.cfi_def_cfa_offset 16
	.cfi_offset 6, -16
	movq	%rsp, %rbp
	.seh_setframe	%rbp, 0
	.cfi_def_cfa_register 6
	subq	$80, %rsp
	.seh_stackalloc	80
	.seh_endprologue
	movq	%rcx, 16(%rbp)
	movq	%rdx, 24(%rbp)
	movq	%r8, 32(%rbp)
	movq	32(%rbp), %rax
	movq	%rax, -8(%rbp)
.LBB152:
.LBB153:
.LBB154:
	.file 12 "D:/MSYS2_0/ucrt64/include/c++/15.2.0/bits/move.h"
	.loc 12 139 74
	movq	-8(%rbp), %rax
	movq	16(%rbp), %rdx
	movq	%rdx, -40(%rbp)
	movq	%rax, -32(%rbp)
	movq	-40(%rbp), %rax
	movq	%rax, -24(%rbp)
	movq	-32(%rbp), %rax
	movq	%rax, -16(%rbp)
.LBE154:
.LBE153:
.LBB155:
.LBB156:
.LBB157:
.LBB158:
.LBB159:
	.loc 10 92 71
	nop
.LBE159:
.LBE158:
.LBE157:
	.loc 9 173 38
	nop
.LBE156:
.LBE155:
	.loc 8 209 36 discriminator 2
	movq	16(%rbp), %rax
	movq	%rax, %rdx
	shrq	$3, %rdx
	addq	$2147450880, %rdx
	movzbl	(%rdx), %edx
	testb	%dl, %dl
	je	.L311
	movq	%rax, %rcx
	call	__asan_report_store8
.L311:
	movq	16(%rbp), %rax
	movq	24(%rbp), %rdx
	movq	%rdx, (%rax)
.LBE152:
	.loc 8 209 50
	nop
	addq	$80, %rsp
	popq	%rbp
	.cfi_restore 6
	.cfi_def_cfa 7, 8
	ret
	.cfi_endproc
.LFE2044:
	.seh_endproc
	.section	.text$_ZNSt7__cxx1112basic_stringIcSt11char_traitsIcESaIcEE13_M_set_lengthEy,"x"
	.linkonce discard
	.align 2
	.globl	_ZNSt7__cxx1112basic_stringIcSt11char_traitsIcESaIcEE13_M_set_lengthEy
	.def	_ZNSt7__cxx1112basic_stringIcSt11char_traitsIcESaIcEE13_M_set_lengthEy;	.scl	2;	.type	32;	.endef
	.seh_proc	_ZNSt7__cxx1112basic_stringIcSt11char_traitsIcESaIcEE13_M_set_lengthEy
_ZNSt7__cxx1112basic_stringIcSt11char_traitsIcESaIcEE13_M_set_lengthEy:
.LASANPC2046:
.LFB2046:
	.loc 8 270 7
	.cfi_startproc
	pushq	%rbp
	.seh_pushreg	%rbp
	.cfi_def_cfa_offset 16
	.cfi_offset 6, -16
	pushq	%r12
	.seh_pushreg	%r12
	.cfi_def_cfa_offset 24
	.cfi_offset 12, -24
	pushq	%rdi
	.seh_pushreg	%rdi
	.cfi_def_cfa_offset 32
	.cfi_offset 5, -32
	pushq	%rsi
	.seh_pushreg	%rsi
	.cfi_def_cfa_offset 40
	.cfi_offset 4, -40
	pushq	%rbx
	.seh_pushreg	%rbx
	.cfi_def_cfa_offset 48
	.cfi_offset 3, -48
	subq	$96, %rsp
	.seh_stackalloc	96
	.cfi_def_cfa_offset 144
	leaq	96(%rsp), %rbp
	.seh_setframe	%rbp, 96
	.cfi_def_cfa 6, 48
	.seh_endprologue
	movq	%rcx, 48(%rbp)
	movq	%rdx, 56(%rbp)
	leaq	-64(%rbp), %rbx
	movq	%rbx, %r12
	movq	.refptr.__asan_option_detect_stack_use_after_return(%rip), %rax
	cmpl	$0, (%rax)
	je	.L312
	movl	$64, %ecx
	call	__asan_stack_malloc_0
	testq	%rax, %rax
	je	.L312
	movq	%rax, %rbx
.L312:
	leaq	64(%rbx), %rax
	movq	%rax, %rdi
	movq	$1102416563, (%rbx)
	leaq	.LC21(%rip), %rax
	movq	%rax, 8(%rbx)
	leaq	.LASANPC2046(%rip), %rax
	movq	%rax, 16(%rbx)
	movq	%rbx, %rsi
	shrq	$3, %rsi
	movl	$-235802127, 2147450880(%rsi)
	movl	$-202116351, 2147450884(%rsi)
	.loc 8 272 11
	movq	56(%rbp), %rdx
	movq	48(%rbp), %rax
	movq	%rax, %rcx
	call	_ZNSt7__cxx1112basic_stringIcSt11char_traitsIcESaIcEE9_M_lengthEy
	.loc 8 273 21 discriminator 1
	leaq	-32(%rdi), %rax
	movq	%rax, %rdx
	movq	%rdx, %rax
	shrq	$3, %rax
	addq	$2147450880, %rax
	movzbl	(%rax), %eax
	testb	%al, %al
	setne	%cl
	testb	%al, %al
	setle	%al
	andl	%ecx, %eax
	testb	%al, %al
	je	.L316
	movq	%rdx, %rcx
	call	__asan_report_store1
.L316:
	movb	$0, -32(%rdi)
	.loc 8 273 29 discriminator 1
	movq	48(%rbp), %rax
	movq	%rax, %rcx
	call	_ZNKSt7__cxx1112basic_stringIcSt11char_traitsIcESaIcEE7_M_dataEv
	.loc 8 273 31 discriminator 2
	movq	56(%rbp), %rdx
	addq	%rdx, %rax
	.loc 8 273 21 discriminator 2
	leaq	-32(%rdi), %rdx
	movq	%rax, %rcx
	call	_ZNSt11char_traitsIcE6assignERcRKc
	.loc 8 274 7
	nop
	.loc 8 270 7
	cmpq	%rbx, %r12
	je	.L313
	movq	$1172321806, (%rbx)
	movabsq	$-723401728380766731, %rax
	movq	%rax, 2147450880(%rsi)
	movq	56(%rbx), %rax
	movb	$0, (%rax)
	jmp	.L314
.L313:
	movq	$0, 2147450880(%rsi)
.L314:
	.loc 8 274 7
	addq	$96, %rsp
	popq	%rbx
	.cfi_restore 3
	popq	%rsi
	.cfi_restore 4
	popq	%rdi
	.cfi_restore 5
	popq	%r12
	.cfi_restore 12
	popq	%rbp
	.cfi_restore 6
	.cfi_def_cfa 7, -56
	ret
	.cfi_endproc
.LFE2046:
	.seh_endproc
	.section	.text$_ZNSt7__cxx1112basic_stringIcSt11char_traitsIcESaIcEE10_M_disposeEv,"x"
	.linkonce discard
	.align 2
	.globl	_ZNSt7__cxx1112basic_stringIcSt11char_traitsIcESaIcEE10_M_disposeEv
	.def	_ZNSt7__cxx1112basic_stringIcSt11char_traitsIcESaIcEE10_M_disposeEv;	.scl	2;	.type	32;	.endef
	.seh_proc	_ZNSt7__cxx1112basic_stringIcSt11char_traitsIcESaIcEE10_M_disposeEv
_ZNSt7__cxx1112basic_stringIcSt11char_traitsIcESaIcEE10_M_disposeEv:
.LASANPC2047:
.LFB2047:
	.loc 8 296 7
	.cfi_startproc
	pushq	%rbp
	.seh_pushreg	%rbp
	.cfi_def_cfa_offset 16
	.cfi_offset 6, -16
	movq	%rsp, %rbp
	.seh_setframe	%rbp, 0
	.cfi_def_cfa_register 6
	subq	$32, %rsp
	.seh_stackalloc	32
	.seh_endprologue
	movq	%rcx, 16(%rbp)
	.loc 8 298 18
	movq	16(%rbp), %rax
	movq	%rax, %rcx
	call	_ZNKSt7__cxx1112basic_stringIcSt11char_traitsIcESaIcEE11_M_is_localEv
	.loc 8 298 18 is_stmt 0 discriminator 1
	xorl	$1, %eax
	.loc 8 298 2 is_stmt 1 discriminator 1
	testb	%al, %al
	je	.L320
	.loc 8 299 14
	movq	16(%rbp), %rax
	addq	$16, %rax
	movq	%rax, %rdx
	shrq	$3, %rdx
	addq	$2147450880, %rdx
	movzbl	(%rdx), %edx
	testb	%dl, %dl
	je	.L319
	movq	%rax, %rcx
	call	__asan_report_load8
.L319:
	movq	16(%rbp), %rax
	movq	16(%rax), %rdx
	movq	16(%rbp), %rax
	movq	%rax, %rcx
	call	_ZNSt7__cxx1112basic_stringIcSt11char_traitsIcESaIcEE10_M_destroyEy
.L320:
	.loc 8 300 7
	nop
	addq	$32, %rsp
	popq	%rbp
	.cfi_restore 6
	.cfi_def_cfa 7, 8
	ret
	.cfi_endproc
.LFE2047:
	.seh_endproc
	.section	.text$_ZNSt7__cxx1112basic_stringIcSt11char_traitsIcESaIcEE16_M_get_allocatorEv,"x"
	.linkonce discard
	.align 2
	.globl	_ZNSt7__cxx1112basic_stringIcSt11char_traitsIcESaIcEE16_M_get_allocatorEv
	.def	_ZNSt7__cxx1112basic_stringIcSt11char_traitsIcESaIcEE16_M_get_allocatorEv;	.scl	2;	.type	32;	.endef
	.seh_proc	_ZNSt7__cxx1112basic_stringIcSt11char_traitsIcESaIcEE16_M_get_allocatorEv
_ZNSt7__cxx1112basic_stringIcSt11char_traitsIcESaIcEE16_M_get_allocatorEv:
.LASANPC2050:
.LFB2050:
	.loc 8 359 7
	.cfi_startproc
	pushq	%rbp
	.seh_pushreg	%rbp
	.cfi_def_cfa_offset 16
	.cfi_offset 6, -16
	movq	%rsp, %rbp
	.seh_setframe	%rbp, 0
	.cfi_def_cfa_register 6
	.seh_endprologue
	movq	%rcx, 16(%rbp)
	.loc 8 360 16
	movq	16(%rbp), %rax
	.loc 8 360 29
	popq	%rbp
	.cfi_restore 6
	.cfi_def_cfa 7, 8
	ret
	.cfi_endproc
.LFE2050:
	.seh_endproc
	.section	.text$_ZNKSt7__cxx1112basic_stringIcSt11char_traitsIcESaIcEE11_M_is_localEv,"x"
	.linkonce discard
	.align 2
	.globl	_ZNKSt7__cxx1112basic_stringIcSt11char_traitsIcESaIcEE11_M_is_localEv
	.def	_ZNKSt7__cxx1112basic_stringIcSt11char_traitsIcESaIcEE11_M_is_localEv;	.scl	2;	.type	32;	.endef
	.seh_proc	_ZNKSt7__cxx1112basic_stringIcSt11char_traitsIcESaIcEE11_M_is_localEv
_ZNKSt7__cxx1112basic_stringIcSt11char_traitsIcESaIcEE11_M_is_localEv:
.LASANPC2052:
.LFB2052:
	.loc 8 278 7
	.cfi_startproc
	pushq	%rbp
	.seh_pushreg	%rbp
	.cfi_def_cfa_offset 16
	.cfi_offset 6, -16
	pushq	%rbx
	.seh_pushreg	%rbx
	.cfi_def_cfa_offset 24
	.cfi_offset 3, -24
	subq	$40, %rsp
	.seh_stackalloc	40
	.cfi_def_cfa_offset 64
	leaq	32(%rsp), %rbp
	.seh_setframe	%rbp, 32
	.cfi_def_cfa 6, 32
	.seh_endprologue
	movq	%rcx, 32(%rbp)
	.loc 8 280 13
	movq	32(%rbp), %rax
	movq	%rax, %rcx
	call	_ZNKSt7__cxx1112basic_stringIcSt11char_traitsIcESaIcEE7_M_dataEv
	movq	%rax, %rbx
	.loc 8 280 32 discriminator 1
	movq	32(%rbp), %rax
	movq	%rax, %rcx
	call	_ZNKSt7__cxx1112basic_stringIcSt11char_traitsIcESaIcEE13_M_local_dataEv
	.loc 8 280 16 discriminator 2
	cmpq	%rax, %rbx
	sete	%al
	.loc 8 280 2 discriminator 2
	testb	%al, %al
	je	.L324
	.loc 8 282 10
	movq	32(%rbp), %rax
	addq	$8, %rax
	movq	%rax, %rdx
	shrq	$3, %rdx
	addq	$2147450880, %rdx
	movzbl	(%rdx), %edx
	testb	%dl, %dl
	je	.L325
	movq	%rax, %rcx
	call	__asan_report_load8
.L325:
	movq	32(%rbp), %rax
	movq	8(%rax), %rax
	.loc 8 282 6
	cmpq	$15, %rax
	.loc 8 284 13
	movl	$1, %eax
	jmp	.L327
.L324:
	.loc 8 286 9
	movl	$0, %eax
.L327:
	.loc 8 287 7
	addq	$40, %rsp
	popq	%rbx
	.cfi_restore 3
	popq	%rbp
	.cfi_restore 6
	.cfi_def_cfa 7, -24
	ret
	.cfi_endproc
.LFE2052:
	.seh_endproc
	.section	.text$_ZNKSt7__cxx1112basic_stringIcSt11char_traitsIcESaIcEE6lengthEv,"x"
	.linkonce discard
	.align 2
	.globl	_ZNKSt7__cxx1112basic_stringIcSt11char_traitsIcESaIcEE6lengthEv
	.def	_ZNKSt7__cxx1112basic_stringIcSt11char_traitsIcESaIcEE6lengthEv;	.scl	2;	.type	32;	.endef
	.seh_proc	_ZNKSt7__cxx1112basic_stringIcSt11char_traitsIcESaIcEE6lengthEv
_ZNKSt7__cxx1112basic_stringIcSt11char_traitsIcESaIcEE6lengthEv:
.LASANPC2053:
.LFB2053:
	.loc 8 1175 7
	.cfi_startproc
	pushq	%rbp
	.seh_pushreg	%rbp
	.cfi_def_cfa_offset 16
	.cfi_offset 6, -16
	movq	%rsp, %rbp
	.seh_setframe	%rbp, 0
	.cfi_def_cfa_register 6
	subq	$32, %rsp
	.seh_stackalloc	32
	.seh_endprologue
	movq	%rcx, 16(%rbp)
	.loc 8 1176 20
	movq	16(%rbp), %rax
	movq	%rax, %rcx
	call	_ZNKSt7__cxx1112basic_stringIcSt11char_traitsIcESaIcEE4sizeEv
	.loc 8 1176 24
	addq	$32, %rsp
	popq	%rbp
	.cfi_restore 6
	.cfi_def_cfa 7, 8
	ret
	.cfi_endproc
.LFE2053:
	.seh_endproc
	.section	.text$_ZNSt7__cxx1112basic_stringIcSt11char_traitsIcESaIcEE7_M_dataEPc,"x"
	.linkonce discard
	.align 2
	.globl	_ZNSt7__cxx1112basic_stringIcSt11char_traitsIcESaIcEE7_M_dataEPc
	.def	_ZNSt7__cxx1112basic_stringIcSt11char_traitsIcESaIcEE7_M_dataEPc;	.scl	2;	.type	32;	.endef
	.seh_proc	_ZNSt7__cxx1112basic_stringIcSt11char_traitsIcESaIcEE7_M_dataEPc
_ZNSt7__cxx1112basic_stringIcSt11char_traitsIcESaIcEE7_M_dataEPc:
.LASANPC2054:
.LFB2054:
	.loc 8 228 7
	.cfi_startproc
	pushq	%rbp
	.seh_pushreg	%rbp
	.cfi_def_cfa_offset 16
	.cfi_offset 6, -16
	movq	%rsp, %rbp
	.seh_setframe	%rbp, 0
	.cfi_def_cfa_register 6
	subq	$32, %rsp
	.seh_stackalloc	32
	.seh_endprologue
	movq	%rcx, 16(%rbp)
	movq	%rdx, 24(%rbp)
	.loc 8 229 26
	movq	16(%rbp), %rax
	movq	%rax, %rdx
	shrq	$3, %rdx
	addq	$2147450880, %rdx
	movzbl	(%rdx), %edx
	testb	%dl, %dl
	je	.L331
	movq	%rax, %rcx
	call	__asan_report_store8
.L331:
	movq	16(%rbp), %rax
	movq	24(%rbp), %rdx
	movq	%rdx, (%rax)
	.loc 8 229 33
	nop
	addq	$32, %rsp
	popq	%rbp
	.cfi_restore 6
	.cfi_def_cfa 7, 8
	ret
	.cfi_endproc
.LFE2054:
	.seh_endproc
	.section	.text$_ZNSt7__cxx1112basic_stringIcSt11char_traitsIcESaIcEE11_M_capacityEy,"x"
	.linkonce discard
	.align 2
	.globl	_ZNSt7__cxx1112basic_stringIcSt11char_traitsIcESaIcEE11_M_capacityEy
	.def	_ZNSt7__cxx1112basic_stringIcSt11char_traitsIcESaIcEE11_M_capacityEy;	.scl	2;	.type	32;	.endef
	.seh_proc	_ZNSt7__cxx1112basic_stringIcSt11char_traitsIcESaIcEE11_M_capacityEy
_ZNSt7__cxx1112basic_stringIcSt11char_traitsIcESaIcEE11_M_capacityEy:
.LASANPC2055:
.LFB2055:
	.loc 8 265 7
	.cfi_startproc
	pushq	%rbp
	.seh_pushreg	%rbp
	.cfi_def_cfa_offset 16
	.cfi_offset 6, -16
	movq	%rsp, %rbp
	.seh_setframe	%rbp, 0
	.cfi_def_cfa_register 6
	subq	$32, %rsp
	.seh_stackalloc	32
	.seh_endprologue
	movq	%rcx, 16(%rbp)
	movq	%rdx, 24(%rbp)
	.loc 8 266 31
	movq	16(%rbp), %rax
	addq	$16, %rax
	movq	%rax, %rdx
	shrq	$3, %rdx
	addq	$2147450880, %rdx
	movzbl	(%rdx), %edx
	testb	%dl, %dl
	je	.L333
	movq	%rax, %rcx
	call	__asan_report_store8
.L333:
	movq	16(%rbp), %rax
	movq	24(%rbp), %rdx
	movq	%rdx, 16(%rax)
	.loc 8 266 45
	nop
	addq	$32, %rsp
	popq	%rbp
	.cfi_restore 6
	.cfi_def_cfa 7, 8
	ret
	.cfi_endproc
.LFE2055:
	.seh_endproc
	.section	.text$_ZNSt7__cxx1112basic_stringIcSt11char_traitsIcESaIcEE9_M_lengthEy,"x"
	.linkonce discard
	.align 2
	.globl	_ZNSt7__cxx1112basic_stringIcSt11char_traitsIcESaIcEE9_M_lengthEy
	.def	_ZNSt7__cxx1112basic_stringIcSt11char_traitsIcESaIcEE9_M_lengthEy;	.scl	2;	.type	32;	.endef
	.seh_proc	_ZNSt7__cxx1112basic_stringIcSt11char_traitsIcESaIcEE9_M_lengthEy
_ZNSt7__cxx1112basic_stringIcSt11char_traitsIcESaIcEE9_M_lengthEy:
.LASANPC2056:
.LFB2056:
	.loc 8 233 7
	.cfi_startproc
	pushq	%rbp
	.seh_pushreg	%rbp
	.cfi_def_cfa_offset 16
	.cfi_offset 6, -16
	movq	%rsp, %rbp
	.seh_setframe	%rbp, 0
	.cfi_def_cfa_register 6
	subq	$32, %rsp
	.seh_stackalloc	32
	.seh_endprologue
	movq	%rcx, 16(%rbp)
	movq	%rdx, 24(%rbp)
	.loc 8 234 26
	movq	16(%rbp), %rax
	addq	$8, %rax
	movq	%rax, %rdx
	shrq	$3, %rdx
	addq	$2147450880, %rdx
	movzbl	(%rdx), %edx
	testb	%dl, %dl
	je	.L335
	movq	%rax, %rcx
	call	__asan_report_store8
.L335:
	movq	16(%rbp), %rax
	movq	24(%rbp), %rdx
	movq	%rdx, 8(%rax)
	.loc 8 234 38
	nop
	addq	$32, %rsp
	popq	%rbp
	.cfi_restore 6
	.cfi_def_cfa 7, 8
	ret
	.cfi_endproc
.LFE2056:
	.seh_endproc
	.section .rdata,"dr"
	.align 8
.LC22:
	.ascii "2 32 8 14 __diffmax:1183 64 8 15 __allocmax:1185\0"
	.section	.text$_ZNKSt7__cxx1112basic_stringIcSt11char_traitsIcESaIcEE8max_sizeEv,"x"
	.linkonce discard
	.align 2
	.globl	_ZNKSt7__cxx1112basic_stringIcSt11char_traitsIcESaIcEE8max_sizeEv
	.def	_ZNKSt7__cxx1112basic_stringIcSt11char_traitsIcESaIcEE8max_sizeEv;	.scl	2;	.type	32;	.endef
	.seh_proc	_ZNKSt7__cxx1112basic_stringIcSt11char_traitsIcESaIcEE8max_sizeEv
_ZNKSt7__cxx1112basic_stringIcSt11char_traitsIcESaIcEE8max_sizeEv:
.LASANPC2067:
.LFB2067:
	.loc 8 1181 7
	.cfi_startproc
	pushq	%rbp
	.seh_pushreg	%rbp
	.cfi_def_cfa_offset 16
	.cfi_offset 6, -16
	pushq	%r12
	.seh_pushreg	%r12
	.cfi_def_cfa_offset 24
	.cfi_offset 12, -24
	pushq	%rdi
	.seh_pushreg	%rdi
	.cfi_def_cfa_offset 32
	.cfi_offset 5, -32
	pushq	%rsi
	.seh_pushreg	%rsi
	.cfi_def_cfa_offset 40
	.cfi_offset 4, -40
	pushq	%rbx
	.seh_pushreg	%rbx
	.cfi_def_cfa_offset 48
	.cfi_offset 3, -48
	subq	$160, %rsp
	.seh_stackalloc	160
	.cfi_def_cfa_offset 208
	leaq	160(%rsp), %rbp
	.seh_setframe	%rbp, 160
	.cfi_def_cfa 6, 48
	.seh_endprologue
	movq	%rcx, 48(%rbp)
	leaq	-96(%rbp), %rbx
	movq	%rbx, %r12
	movq	.refptr.__asan_option_detect_stack_use_after_return(%rip), %rax
	cmpl	$0, (%rax)
	je	.L336
	movl	$96, %ecx
	call	__asan_stack_malloc_1
	testq	%rax, %rax
	je	.L336
	movq	%rax, %rbx
.L336:
	leaq	96(%rbx), %rax
	movq	%rax, %rdi
	movq	$1102416563, (%rbx)
	leaq	.LC22(%rip), %rax
	movq	%rax, 8(%rbx)
	leaq	.LASANPC2067(%rip), %rax
	movq	%rax, 16(%rbx)
	movq	%rbx, %rsi
	shrq	$3, %rsi
	movl	$-235802127, 2147450880(%rsi)
	movl	$-218959360, 2147450884(%rsi)
	movl	$-202116352, 2147450888(%rsi)
	.loc 8 1183 15 discriminator 1
	leaq	-64(%rdi), %rax
	movq	%rax, %rdx
	shrq	$3, %rdx
	addq	$2147450880, %rdx
	movzbl	(%rdx), %edx
	testb	%dl, %dl
	je	.L340
	movq	%rax, %rcx
	call	__asan_report_store8
.L340:
	movabsq	$9223372036854775807, %rax
	movq	%rax, -64(%rdi)
	.loc 8 1185 68 discriminator 1
	movq	48(%rbp), %rax
	movq	%rax, %rcx
	call	_ZNKSt7__cxx1112basic_stringIcSt11char_traitsIcESaIcEE16_M_get_allocatorEv
	movq	%rax, -120(%rbp)
	movq	-120(%rbp), %rax
	movq	%rax, -112(%rbp)
	movq	-112(%rbp), %rax
	movq	%rax, -104(%rbp)
.LBB160:
.LBB161:
.LBB162:
.LBB163:
.LBB164:
.LBB165:
	.loc 10 233 50
	movabsq	$9223372036854775807, %rcx
.LBE165:
.LBE164:
	.loc 10 183 28
	nop
.LBE163:
.LBE162:
	.file 13 "D:/MSYS2_0/ucrt64/include/c++/15.2.0/bits/alloc_traits.h"
	.loc 13 712 22
	nop
.LBE161:
.LBE160:
	.loc 8 1185 15 discriminator 3
	leaq	-32(%rdi), %rax
	movq	%rax, %rdx
	shrq	$3, %rdx
	addq	$2147450880, %rdx
	movzbl	(%rdx), %edx
	testb	%dl, %dl
	je	.L344
	movq	%rax, %rcx
	call	__asan_report_store8
.L344:
	movq	%rcx, -32(%rdi)
	.loc 8 1186 19
	leaq	-32(%rdi), %rax
	leaq	-64(%rdi), %rcx
	movq	%rax, %rdx
	call	_ZSt3minIyERKT_S2_S2_
	.loc 8 1186 43 discriminator 1
	movq	%rax, %rdx
	movq	%rdx, %rcx
	shrq	$3, %rcx
	addq	$2147450880, %rcx
	movzbl	(%rcx), %ecx
	testb	%cl, %cl
	je	.L345
	movq	%rdx, %rcx
	call	__asan_report_load8
.L345:
	movq	(%rax), %rax
	.loc 8 1186 45 discriminator 1
	subq	$1, %rax
	.loc 8 1186 45 is_stmt 0
	movq	%rax, %rdx
	.loc 8 1181 7 is_stmt 1
	cmpq	%rbx, %r12
	je	.L337
	movq	$1172321806, (%rbx)
	movabsq	$-723401728380766731, %rax
	movq	%rax, 2147450880(%rsi)
	movl	$-168430091, 2147450888(%rsi)
	movq	120(%rbx), %rax
	movb	$0, (%rax)
	jmp	.L338
.L337:
	movq	$0, 2147450880(%rsi)
	movl	$0, 2147450888(%rsi)
.L338:
	.loc 8 1187 7
	movq	%rdx, %rax
	addq	$160, %rsp
	popq	%rbx
	.cfi_restore 3
	popq	%rsi
	.cfi_restore 4
	popq	%rdi
	.cfi_restore 5
	popq	%r12
	.cfi_restore 12
	popq	%rbp
	.cfi_restore 6
	.cfi_def_cfa 7, -120
	ret
	.cfi_endproc
.LFE2067:
	.seh_endproc
	.section	.text$_ZNSt7__cxx1112basic_stringIcSt11char_traitsIcESaIcEEaSERKS4_,"x"
	.linkonce discard
	.align 2
	.globl	_ZNSt7__cxx1112basic_stringIcSt11char_traitsIcESaIcEEaSERKS4_
	.def	_ZNSt7__cxx1112basic_stringIcSt11char_traitsIcESaIcEEaSERKS4_;	.scl	2;	.type	32;	.endef
	.seh_proc	_ZNSt7__cxx1112basic_stringIcSt11char_traitsIcESaIcEEaSERKS4_
_ZNSt7__cxx1112basic_stringIcSt11char_traitsIcESaIcEEaSERKS4_:
.LASANPC2106:
.LFB2106:
	.loc 8 904 7
	.cfi_startproc
	pushq	%rbp
	.seh_pushreg	%rbp
	.cfi_def_cfa_offset 16
	.cfi_offset 6, -16
	movq	%rsp, %rbp
	.seh_setframe	%rbp, 0
	.cfi_def_cfa_register 6
	subq	$32, %rsp
	.seh_stackalloc	32
	.seh_endprologue
	movq	%rcx, 16(%rbp)
	movq	%rdx, 24(%rbp)
	.loc 8 906 21
	movq	24(%rbp), %rdx
	movq	16(%rbp), %rax
	movq	%rax, %rcx
	call	_ZNSt7__cxx1112basic_stringIcSt11char_traitsIcESaIcEE6assignERKS4_
	.loc 8 907 7
	addq	$32, %rsp
	popq	%rbp
	.cfi_restore 6
	.cfi_def_cfa 7, 8
	ret
	.cfi_endproc
.LFE2106:
	.seh_endproc
	.section	.text$_ZNSt7__cxx1112basic_stringIcSt11char_traitsIcESaIcEE6assignEPKc,"x"
	.linkonce discard
	.align 2
	.globl	_ZNSt7__cxx1112basic_stringIcSt11char_traitsIcESaIcEE6assignEPKc
	.def	_ZNSt7__cxx1112basic_stringIcSt11char_traitsIcESaIcEE6assignEPKc;	.scl	2;	.type	32;	.endef
	.seh_proc	_ZNSt7__cxx1112basic_stringIcSt11char_traitsIcESaIcEE6assignEPKc
_ZNSt7__cxx1112basic_stringIcSt11char_traitsIcESaIcEE6assignEPKc:
.LASANPC2107:
.LFB2107:
	.loc 8 1844 7
	.cfi_startproc
	pushq	%rbp
	.seh_pushreg	%rbp
	.cfi_def_cfa_offset 16
	.cfi_offset 6, -16
	pushq	%rbx
	.seh_pushreg	%rbx
	.cfi_def_cfa_offset 24
	.cfi_offset 3, -24
	subq	$56, %rsp
	.seh_stackalloc	56
	.cfi_def_cfa_offset 80
	leaq	48(%rsp), %rbp
	.seh_setframe	%rbp, 48
	.cfi_def_cfa 6, 32
	.seh_endprologue
	movq	%rcx, 32(%rbp)
	movq	%rdx, 40(%rbp)
	.loc 8 1847 19
	movq	40(%rbp), %rax
	movq	%rax, %rcx
	call	_ZNSt11char_traitsIcE6lengthEPKc
	movq	%rax, %rbx
	.loc 8 1847 19 is_stmt 0 discriminator 1
	movq	32(%rbp), %rax
	movq	%rax, %rcx
	call	_ZNKSt7__cxx1112basic_stringIcSt11char_traitsIcESaIcEE4sizeEv
	movq	%rax, %rdx
	.loc 8 1847 19 discriminator 2
	movq	40(%rbp), %rcx
	movq	32(%rbp), %rax
	movq	%rbx, 32(%rsp)
	movq	%rcx, %r9
	movq	%rdx, %r8
	movl	$0, %edx
	movq	%rax, %rcx
	call	_ZNSt7__cxx1112basic_stringIcSt11char_traitsIcESaIcEE10_M_replaceEyyPKcy
	.loc 8 1849 7 is_stmt 1
	addq	$56, %rsp
	popq	%rbx
	.cfi_restore 3
	popq	%rbp
	.cfi_restore 6
	.cfi_def_cfa 7, -40
	ret
	.cfi_endproc
.LFE2107:
	.seh_endproc
	.section	.text$_ZNSt19__ptr_traits_ptr_toIPccLb0EE10pointer_toERc,"x"
	.linkonce discard
	.globl	_ZNSt19__ptr_traits_ptr_toIPccLb0EE10pointer_toERc
	.def	_ZNSt19__ptr_traits_ptr_toIPccLb0EE10pointer_toERc;	.scl	2;	.type	32;	.endef
	.seh_proc	_ZNSt19__ptr_traits_ptr_toIPccLb0EE10pointer_toERc
_ZNSt19__ptr_traits_ptr_toIPccLb0EE10pointer_toERc:
.LASANPC2108:
.LFB2108:
	.file 14 "D:/MSYS2_0/ucrt64/include/c++/15.2.0/bits/ptr_traits.h"
	.loc 14 134 7
	.cfi_startproc
	pushq	%rbp
	.seh_pushreg	%rbp
	.cfi_def_cfa_offset 16
	.cfi_offset 6, -16
	movq	%rsp, %rbp
	.seh_setframe	%rbp, 0
	.cfi_def_cfa_register 6
	subq	$16, %rsp
	.seh_stackalloc	16
	.seh_endprologue
	movq	%rcx, 16(%rbp)
	movq	16(%rbp), %rax
	movq	%rax, -16(%rbp)
	movq	-16(%rbp), %rax
	movq	%rax, -8(%rbp)
.LBB166:
.LBB167:
.LBB168:
.LBB169:
	.loc 12 53 37
	movq	-8(%rbp), %rax
.LBE169:
.LBE168:
	.loc 12 177 34
	nop
.LBE167:
.LBE166:
	.loc 14 135 37
	addq	$16, %rsp
	popq	%rbp
	.cfi_restore 6
	.cfi_def_cfa 7, 8
	ret
	.cfi_endproc
.LFE2108:
	.seh_endproc
	.section	.text$_ZNSt15__new_allocatorIcED2Ev,"x"
	.linkonce discard
	.align 2
	.globl	_ZNSt15__new_allocatorIcED2Ev
	.def	_ZNSt15__new_allocatorIcED2Ev;	.scl	2;	.type	32;	.endef
	.seh_proc	_ZNSt15__new_allocatorIcED2Ev
_ZNSt15__new_allocatorIcED2Ev:
.LASANPC2113:
.LFB2113:
	.loc 10 104 7
	.cfi_startproc
	pushq	%rbp
	.seh_pushreg	%rbp
	.cfi_def_cfa_offset 16
	.cfi_offset 6, -16
	movq	%rsp, %rbp
	.seh_setframe	%rbp, 0
	.cfi_def_cfa_register 6
	.seh_endprologue
	movq	%rcx, 16(%rbp)
	.loc 10 104 50
	nop
	popq	%rbp
	.cfi_restore 6
	.cfi_def_cfa 7, 8
	ret
	.cfi_endproc
.LFE2113:
	.seh_endproc
	.section	.text$_ZNSt7__cxx1112basic_stringIcSt11char_traitsIcESaIcEE10_M_destroyEy,"x"
	.linkonce discard
	.align 2
	.globl	_ZNSt7__cxx1112basic_stringIcSt11char_traitsIcESaIcEE10_M_destroyEy
	.def	_ZNSt7__cxx1112basic_stringIcSt11char_traitsIcESaIcEE10_M_destroyEy;	.scl	2;	.type	32;	.endef
	.seh_proc	_ZNSt7__cxx1112basic_stringIcSt11char_traitsIcESaIcEE10_M_destroyEy
_ZNSt7__cxx1112basic_stringIcSt11char_traitsIcESaIcEE10_M_destroyEy:
.LASANPC2118:
.LFB2118:
	.loc 8 304 7
	.cfi_startproc
	pushq	%rbp
	.seh_pushreg	%rbp
	.cfi_def_cfa_offset 16
	.cfi_offset 6, -16
	pushq	%rsi
	.seh_pushreg	%rsi
	.cfi_def_cfa_offset 24
	.cfi_offset 4, -24
	pushq	%rbx
	.seh_pushreg	%rbx
	.cfi_def_cfa_offset 32
	.cfi_offset 3, -32
	subq	$64, %rsp
	.seh_stackalloc	64
	.cfi_def_cfa_offset 96
	leaq	64(%rsp), %rbp
	.seh_setframe	%rbp, 64
	.cfi_def_cfa 6, 32
	.seh_endprologue
	movq	%rcx, 32(%rbp)
	movq	%rdx, 40(%rbp)
	.loc 8 305 34
	movq	40(%rbp), %rax
	leaq	1(%rax), %rsi
	movq	32(%rbp), %rax
	movq	%rax, %rcx
	call	_ZNKSt7__cxx1112basic_stringIcSt11char_traitsIcESaIcEE7_M_dataEv
	movq	%rax, %rbx
	.loc 8 305 51 discriminator 1
	movq	32(%rbp), %rax
	movq	%rax, %rcx
	call	_ZNSt7__cxx1112basic_stringIcSt11char_traitsIcESaIcEE16_M_get_allocatorEv
	movq	%rax, -24(%rbp)
	movq	%rbx, -16(%rbp)
	movq	%rsi, -8(%rbp)
.LBB170:
.LBB171:
	.loc 13 649 23
	movq	-8(%rbp), %rcx
	movq	-16(%rbp), %rdx
	movq	-24(%rbp), %rax
	movq	%rcx, %r8
	movq	%rax, %rcx
	call	_ZNSt15__new_allocatorIcE10deallocateEPcy
	.loc 13 649 35
	nop
.LBE171:
.LBE170:
	.loc 8 305 79
	nop
	addq	$64, %rsp
	popq	%rbx
	.cfi_restore 3
	popq	%rsi
	.cfi_restore 4
	popq	%rbp
	.cfi_restore 6
	.cfi_def_cfa 7, -40
	ret
	.cfi_endproc
.LFE2118:
	.seh_endproc
	.section	.text$_ZNKSt7__cxx1112basic_stringIcSt11char_traitsIcESaIcEE8capacityEv,"x"
	.linkonce discard
	.align 2
	.globl	_ZNKSt7__cxx1112basic_stringIcSt11char_traitsIcESaIcEE8capacityEv
	.def	_ZNKSt7__cxx1112basic_stringIcSt11char_traitsIcESaIcEE8capacityEv;	.scl	2;	.type	32;	.endef
	.seh_proc	_ZNKSt7__cxx1112basic_stringIcSt11char_traitsIcESaIcEE8capacityEv
_ZNKSt7__cxx1112basic_stringIcSt11char_traitsIcESaIcEE8capacityEv:
.LASANPC2119:
.LFB2119:
	.loc 8 1277 7
	.cfi_startproc
	pushq	%rbp
	.seh_pushreg	%rbp
	.cfi_def_cfa_offset 16
	.cfi_offset 6, -16
	movq	%rsp, %rbp
	.seh_setframe	%rbp, 0
	.cfi_def_cfa_register 6
	subq	$48, %rsp
	.seh_stackalloc	48
	.seh_endprologue
	movq	%rcx, 16(%rbp)
	.loc 8 1279 27
	movq	16(%rbp), %rax
	movq	%rax, %rcx
	call	_ZNKSt7__cxx1112basic_stringIcSt11char_traitsIcESaIcEE11_M_is_localEv
	.loc 8 1279 30 discriminator 1
	testb	%al, %al
	je	.L358
	.loc 8 1279 9 discriminator 2
	movq	$15, -8(%rbp)
	jmp	.L359
.L358:
	.loc 8 1279 9 is_stmt 0 discriminator 3
	movq	16(%rbp), %rax
	addq	$16, %rax
	movq	%rax, %rdx
	shrq	$3, %rdx
	addq	$2147450880, %rdx
	movzbl	(%rdx), %edx
	testb	%dl, %dl
	je	.L360
	movq	%rax, %rcx
	call	__asan_report_load8
.L360:
	movq	16(%rbp), %rax
	movq	16(%rax), %rax
	movq	%rax, -8(%rbp)
.L359:
	.loc 8 1281 31 is_stmt 1
	cmpq	$14, -8(%rbp)
	jbe	.L361
	.loc 8 1281 50 discriminator 2
	movq	16(%rbp), %rax
	movq	%rax, %rcx
	call	_ZNKSt7__cxx1112basic_stringIcSt11char_traitsIcESaIcEE8max_sizeEv
	.loc 8 1281 31 discriminator 3
	cmpq	-8(%rbp), %rax
	jnb	.L362
.L361:
	.loc 8 1281 31 is_stmt 0 discriminator 4
	movl	$1, %eax
	.loc 8 1281 31
	jmp	.L363
.L362:
	.loc 8 1281 31 discriminator 5
	movl	$0, %eax
.L363:
	.loc 8 1281 2 is_stmt 1 discriminator 7
	testb	%al, %al
	.loc 8 1283 9
	movq	-8(%rbp), %rax
	.loc 8 1284 7
	addq	$48, %rsp
	popq	%rbp
	.cfi_restore 6
	.cfi_def_cfa 7, 8
	ret
	.cfi_endproc
.LFE2119:
	.seh_endproc
	.section .rdata,"dr"
	.align 32
.LC23:
	.ascii "basic_string::_M_create\0"
	.space 40
	.section	.text$_ZNSt7__cxx1112basic_stringIcSt11char_traitsIcESaIcEE9_M_createERyy,"x"
	.linkonce discard
	.align 2
	.globl	_ZNSt7__cxx1112basic_stringIcSt11char_traitsIcESaIcEE9_M_createERyy
	.def	_ZNSt7__cxx1112basic_stringIcSt11char_traitsIcESaIcEE9_M_createERyy;	.scl	2;	.type	32;	.endef
	.seh_proc	_ZNSt7__cxx1112basic_stringIcSt11char_traitsIcESaIcEE9_M_createERyy
_ZNSt7__cxx1112basic_stringIcSt11char_traitsIcESaIcEE9_M_createERyy:
.LASANPC2120:
.LFB2120:
	.file 15 "D:/MSYS2_0/ucrt64/include/c++/15.2.0/bits/basic_string.tcc"
	.loc 15 143 5
	.cfi_startproc
	pushq	%rbp
	.seh_pushreg	%rbp
	.cfi_def_cfa_offset 16
	.cfi_offset 6, -16
	pushq	%rbx
	.seh_pushreg	%rbx
	.cfi_def_cfa_offset 24
	.cfi_offset 3, -24
	subq	$40, %rsp
	.seh_stackalloc	40
	.cfi_def_cfa_offset 64
	leaq	32(%rsp), %rbp
	.seh_setframe	%rbp, 32
	.cfi_def_cfa 6, 32
	.seh_endprologue
	movq	%rcx, 32(%rbp)
	movq	%rdx, 40(%rbp)
	movq	%r8, 48(%rbp)
	.loc 15 148 22
	movq	40(%rbp), %rax
	movq	%rax, %rdx
	shrq	$3, %rdx
	addq	$2147450880, %rdx
	movzbl	(%rdx), %edx
	testb	%dl, %dl
	je	.L367
	movq	%rax, %rcx
	call	__asan_report_load8
.L367:
	movq	40(%rbp), %rax
	movq	(%rax), %rbx
	.loc 15 148 32
	movq	32(%rbp), %rax
	movq	%rax, %rcx
	call	_ZNKSt7__cxx1112basic_stringIcSt11char_traitsIcESaIcEE8max_sizeEv
	.loc 15 148 22 discriminator 1
	cmpq	%rbx, %rax
	setb	%al
	.loc 15 148 7 discriminator 1
	testb	%al, %al
	je	.L368
	.loc 15 149 27
	call	__asan_handle_no_return
	leaq	.LC23(%rip), %rax
	movq	%rax, %rcx
	call	_ZSt20__throw_length_errorPKc
.L368:
	.loc 15 154 22
	movq	40(%rbp), %rax
	movq	%rax, %rdx
	shrq	$3, %rdx
	addq	$2147450880, %rdx
	movzbl	(%rdx), %edx
	testb	%dl, %dl
	je	.L369
	movq	%rax, %rcx
	call	__asan_report_load8
.L369:
	movq	40(%rbp), %rax
	movq	(%rax), %rax
	.loc 15 154 7
	cmpq	%rax, 48(%rbp)
	jnb	.L370
	.loc 15 154 53 discriminator 1
	movq	40(%rbp), %rax
	movq	(%rax), %rdx
	.loc 15 154 57 discriminator 1
	movq	48(%rbp), %rax
	addq	%rax, %rax
	.loc 15 154 39 discriminator 1
	cmpq	%rax, %rdx
	jnb	.L370
	.loc 15 156 19
	movq	48(%rbp), %rax
	leaq	(%rax,%rax), %rdx
	.loc 15 156 15
	movq	40(%rbp), %rax
	movq	%rdx, (%rax)
	.loc 15 158 19
	movq	40(%rbp), %rax
	movq	(%rax), %rbx
	.loc 15 158 29
	movq	32(%rbp), %rax
	movq	%rax, %rcx
	call	_ZNKSt7__cxx1112basic_stringIcSt11char_traitsIcESaIcEE8max_sizeEv
	.loc 15 158 19 discriminator 1
	cmpq	%rbx, %rax
	setb	%al
	.loc 15 158 4 discriminator 1
	testb	%al, %al
	je	.L370
	.loc 15 159 27
	movq	32(%rbp), %rax
	movq	%rax, %rcx
	call	_ZNKSt7__cxx1112basic_stringIcSt11char_traitsIcESaIcEE8max_sizeEv
	movq	%rax, %rdx
	.loc 15 159 17 discriminator 1
	movq	40(%rbp), %rax
	movq	%rax, %rcx
	shrq	$3, %rcx
	addq	$2147450880, %rcx
	movzbl	(%rcx), %ecx
	testb	%cl, %cl
	je	.L371
	movq	%rax, %rcx
	call	__asan_report_store8
.L371:
	movq	40(%rbp), %rax
	movq	%rdx, (%rax)
.L370:
	.loc 15 164 25
	movq	40(%rbp), %rax
	movq	%rax, %rdx
	shrq	$3, %rdx
	addq	$2147450880, %rdx
	movzbl	(%rdx), %edx
	testb	%dl, %dl
	je	.L372
	movq	%rax, %rcx
	call	__asan_report_load8
.L372:
	movq	40(%rbp), %rax
	movq	(%rax), %rax
	leaq	1(%rax), %rbx
	.loc 15 164 42
	movq	32(%rbp), %rax
	movq	%rax, %rcx
	call	_ZNSt7__cxx1112basic_stringIcSt11char_traitsIcESaIcEE16_M_get_allocatorEv
	.loc 15 164 25 discriminator 1
	movq	%rbx, %rdx
	movq	%rax, %rcx
	call	_ZNSt7__cxx1112basic_stringIcSt11char_traitsIcESaIcEE11_S_allocateERS3_y
	.loc 15 165 5
	addq	$40, %rsp
	popq	%rbx
	.cfi_restore 3
	popq	%rbp
	.cfi_restore 6
	.cfi_def_cfa 7, -24
	ret
	.cfi_endproc
.LFE2120:
	.seh_endproc
	.section	.text$_ZNSt7__cxx1112basic_stringIcSt11char_traitsIcESaIcEE7_S_copyEPcPKcy,"x"
	.linkonce discard
	.globl	_ZNSt7__cxx1112basic_stringIcSt11char_traitsIcESaIcEE7_S_copyEPcPKcy
	.def	_ZNSt7__cxx1112basic_stringIcSt11char_traitsIcESaIcEE7_S_copyEPcPKcy;	.scl	2;	.type	32;	.endef
	.seh_proc	_ZNSt7__cxx1112basic_stringIcSt11char_traitsIcESaIcEE7_S_copyEPcPKcy
_ZNSt7__cxx1112basic_stringIcSt11char_traitsIcESaIcEE7_S_copyEPcPKcy:
.LASANPC2121:
.LFB2121:
	.loc 8 448 7
	.cfi_startproc
	pushq	%rbp
	.seh_pushreg	%rbp
	.cfi_def_cfa_offset 16
	.cfi_offset 6, -16
	movq	%rsp, %rbp
	.seh_setframe	%rbp, 0
	.cfi_def_cfa_register 6
	subq	$32, %rsp
	.seh_stackalloc	32
	.seh_endprologue
	movq	%rcx, 16(%rbp)
	movq	%rdx, 24(%rbp)
	movq	%r8, 32(%rbp)
	.loc 8 450 2
	cmpq	$1, 32(%rbp)
	jne	.L375
	.loc 8 451 23
	movq	24(%rbp), %rdx
	movq	16(%rbp), %rax
	movq	%rax, %rcx
	call	_ZNSt11char_traitsIcE6assignERcRKc
	.loc 8 454 7
	jmp	.L377
.L375:
	.loc 8 453 21
	movq	32(%rbp), %rcx
	movq	24(%rbp), %rdx
	movq	16(%rbp), %rax
	movq	%rcx, %r8
	movq	%rax, %rcx
	call	_ZNSt11char_traitsIcE4copyEPcPKcy
.L377:
	.loc 8 454 7
	nop
	addq	$32, %rsp
	popq	%rbp
	.cfi_restore 6
	.cfi_def_cfa 7, 8
	ret
	.cfi_endproc
.LFE2121:
	.seh_endproc
	.section	.text$_ZNKSt7__cxx1112basic_stringIcSt11char_traitsIcESaIcEE13_M_local_dataEv,"x"
	.linkonce discard
	.align 2
	.globl	_ZNKSt7__cxx1112basic_stringIcSt11char_traitsIcESaIcEE13_M_local_dataEv
	.def	_ZNKSt7__cxx1112basic_stringIcSt11char_traitsIcESaIcEE13_M_local_dataEv;	.scl	2;	.type	32;	.endef
	.seh_proc	_ZNKSt7__cxx1112basic_stringIcSt11char_traitsIcESaIcEE13_M_local_dataEv
_ZNKSt7__cxx1112basic_stringIcSt11char_traitsIcESaIcEE13_M_local_dataEv:
.LASANPC2122:
.LFB2122:
	.loc 8 254 7
	.cfi_startproc
	pushq	%rbp
	.seh_pushreg	%rbp
	.cfi_def_cfa_offset 16
	.cfi_offset 6, -16
	movq	%rsp, %rbp
	.seh_setframe	%rbp, 0
	.cfi_def_cfa_register 6
	subq	$32, %rsp
	.seh_stackalloc	32
	.seh_endprologue
	movq	%rcx, 16(%rbp)
	.loc 8 257 57
	movq	16(%rbp), %rax
	addq	$16, %rax
	.loc 8 257 55
	movq	%rax, %rcx
	call	_ZNSt19__ptr_traits_ptr_toIPKcS0_Lb0EE10pointer_toERS0_
	.loc 8 261 7
	addq	$32, %rsp
	popq	%rbp
	.cfi_restore 6
	.cfi_def_cfa 7, 8
	ret
	.cfi_endproc
.LFE2122:
	.seh_endproc
	.section	.text$_ZNKSt7__cxx1112basic_stringIcSt11char_traitsIcESaIcEE16_M_get_allocatorEv,"x"
	.linkonce discard
	.align 2
	.globl	_ZNKSt7__cxx1112basic_stringIcSt11char_traitsIcESaIcEE16_M_get_allocatorEv
	.def	_ZNKSt7__cxx1112basic_stringIcSt11char_traitsIcESaIcEE16_M_get_allocatorEv;	.scl	2;	.type	32;	.endef
	.seh_proc	_ZNKSt7__cxx1112basic_stringIcSt11char_traitsIcESaIcEE16_M_get_allocatorEv
_ZNKSt7__cxx1112basic_stringIcSt11char_traitsIcESaIcEE16_M_get_allocatorEv:
.LASANPC2134:
.LFB2134:
	.loc 8 364 7
	.cfi_startproc
	pushq	%rbp
	.seh_pushreg	%rbp
	.cfi_def_cfa_offset 16
	.cfi_offset 6, -16
	movq	%rsp, %rbp
	.seh_setframe	%rbp, 0
	.cfi_def_cfa_register 6
	.seh_endprologue
	movq	%rcx, 16(%rbp)
	.loc 8 365 16
	movq	16(%rbp), %rax
	.loc 8 365 29
	popq	%rbp
	.cfi_restore 6
	.cfi_def_cfa 7, 8
	ret
	.cfi_endproc
.LFE2134:
	.seh_endproc
	.section	.text$_ZSt3minIyERKT_S2_S2_,"x"
	.linkonce discard
	.globl	_ZSt3minIyERKT_S2_S2_
	.def	_ZSt3minIyERKT_S2_S2_;	.scl	2;	.type	32;	.endef
	.seh_proc	_ZSt3minIyERKT_S2_S2_
_ZSt3minIyERKT_S2_S2_:
.LASANPC2136:
.LFB2136:
	.file 16 "D:/MSYS2_0/ucrt64/include/c++/15.2.0/bits/stl_algobase.h"
	.loc 16 234 5
	.cfi_startproc
	pushq	%rbp
	.seh_pushreg	%rbp
	.cfi_def_cfa_offset 16
	.cfi_offset 6, -16
	movq	%rsp, %rbp
	.seh_setframe	%rbp, 0
	.cfi_def_cfa_register 6
	subq	$32, %rsp
	.seh_stackalloc	32
	.seh_endprologue
	movq	%rcx, 16(%rbp)
	movq	%rdx, 24(%rbp)
	.loc 16 239 15
	movq	24(%rbp), %rax
	movq	%rax, %rdx
	shrq	$3, %rdx
	addq	$2147450880, %rdx
	movzbl	(%rdx), %edx
	testb	%dl, %dl
	je	.L383
	movq	%rax, %rcx
	call	__asan_report_load8
.L383:
	movq	24(%rbp), %rax
	movq	(%rax), %rcx
	movq	16(%rbp), %rax
	movq	%rax, %rdx
	shrq	$3, %rdx
	addq	$2147450880, %rdx
	movzbl	(%rdx), %edx
	testb	%dl, %dl
	je	.L384
	movq	%rax, %rcx
	call	__asan_report_load8
.L384:
	movq	16(%rbp), %rax
	movq	(%rax), %rax
	.loc 16 239 7
	cmpq	%rax, %rcx
	jnb	.L385
	.loc 16 240 9
	movq	24(%rbp), %rax
	jmp	.L386
.L385:
	.loc 16 241 14
	movq	16(%rbp), %rax
.L386:
	.loc 16 242 5
	addq	$32, %rsp
	popq	%rbp
	.cfi_restore 6
	.cfi_def_cfa 7, 8
	ret
	.cfi_endproc
.LFE2136:
	.seh_endproc
	.section .rdata,"dr"
.LC24:
	.ascii "1 32 1 12 __alloc:1759\0"
	.section	.text$_ZNSt7__cxx1112basic_stringIcSt11char_traitsIcESaIcEE6assignERKS4_,"x"
	.linkonce discard
	.align 2
	.globl	_ZNSt7__cxx1112basic_stringIcSt11char_traitsIcESaIcEE6assignERKS4_
	.def	_ZNSt7__cxx1112basic_stringIcSt11char_traitsIcESaIcEE6assignERKS4_;	.scl	2;	.type	32;	.endef
	.seh_proc	_ZNSt7__cxx1112basic_stringIcSt11char_traitsIcESaIcEE6assignERKS4_
_ZNSt7__cxx1112basic_stringIcSt11char_traitsIcESaIcEE6assignERKS4_:
.LASANPC2151:
.LFB2151:
	.loc 8 1740 7
	.cfi_startproc
	pushq	%rbp
	.seh_pushreg	%rbp
	.cfi_def_cfa_offset 16
	.cfi_offset 6, -16
	pushq	%r13
	.seh_pushreg	%r13
	.cfi_def_cfa_offset 24
	.cfi_offset 13, -24
	pushq	%r12
	.seh_pushreg	%r12
	.cfi_def_cfa_offset 32
	.cfi_offset 12, -32
	pushq	%rdi
	.seh_pushreg	%rdi
	.cfi_def_cfa_offset 40
	.cfi_offset 5, -40
	pushq	%rsi
	.seh_pushreg	%rsi
	.cfi_def_cfa_offset 48
	.cfi_offset 4, -48
	pushq	%rbx
	.seh_pushreg	%rbx
	.cfi_def_cfa_offset 56
	.cfi_offset 3, -56
	subq	$184, %rsp
	.seh_stackalloc	184
	.cfi_def_cfa_offset 240
	leaq	176(%rsp), %rbp
	.seh_setframe	%rbp, 176
	.cfi_def_cfa 6, 64
	.seh_endprologue
	movq	%rcx, 64(%rbp)
	movq	%rdx, 72(%rbp)
	leaq	-64(%rbp), %rbx
	movq	%rbx, %r13
	movq	.refptr.__asan_option_detect_stack_use_after_return(%rip), %rax
	cmpl	$0, (%rax)
	je	.L387
	movl	$64, %ecx
	call	__asan_stack_malloc_0
	testq	%rax, %rax
	je	.L387
	movq	%rax, %rbx
.L387:
	leaq	64(%rbx), %rax
	movq	%rax, %rdi
	movq	$1102416563, (%rbx)
	leaq	.LC24(%rip), %rax
	movq	%rax, 8(%rbx)
	leaq	.LASANPC2151(%rip), %rax
	movq	%rax, 16(%rbx)
	movq	%rbx, %rsi
	shrq	$3, %rsi
	movl	$-235802127, 2147450880(%rsi)
	movl	$-202116351, 2147450884(%rsi)
.LBB172:
.LBB173:
.LBB174:
	.file 17 "D:/MSYS2_0/ucrt64/include/c++/15.2.0/ext/alloc_traits.h"
	.loc 17 108 66
	movl	$0, %eax
.LBE174:
.LBE173:
	.loc 8 1743 2 discriminator 1
	testb	%al, %al
	je	.L392
.LBB175:
.LBB176:
.LBB177:
.LBB178:
	.loc 17 120 43
	movl	$1, %eax
.LBE178:
.LBE177:
	.loc 8 1745 41 discriminator 1
	xorl	$1, %eax
	.loc 8 1746 3
	testb	%al, %al
	je	.L394
	.loc 8 1745 59
	movq	64(%rbp), %rax
	movq	%rax, %rcx
	call	_ZNKSt7__cxx1112basic_stringIcSt11char_traitsIcESaIcEE11_M_is_localEv
	.loc 8 1745 59 is_stmt 0 discriminator 2
	xorl	$1, %eax
	.loc 8 1745 44 is_stmt 1 discriminator 2
	testb	%al, %al
	je	.L394
	.loc 8 1746 50
	movq	72(%rbp), %rax
	movq	%rax, %rcx
	call	_ZNKSt7__cxx1112basic_stringIcSt11char_traitsIcESaIcEE16_M_get_allocatorEv
	movq	%rax, %r12
	.loc 8 1746 22 discriminator 2
	movq	64(%rbp), %rax
	movq	%rax, %rcx
	call	_ZNSt7__cxx1112basic_stringIcSt11char_traitsIcESaIcEE16_M_get_allocatorEv
	movq	%rax, -128(%rbp)
	movq	%r12, -120(%rbp)
.LBB179:
.LBB180:
	.loc 9 228 16
	movl	$0, %eax
.LBE180:
.LBE179:
	.loc 8 1746 3 discriminator 4
	testb	%al, %al
	je	.L394
	.loc 8 1746 3 is_stmt 0 discriminator 5
	movl	$1, %eax
	.loc 8 1746 3
	jmp	.L396
.L394:
	.loc 8 1746 3 discriminator 6
	movl	$0, %eax
.L396:
	.loc 8 1745 6 is_stmt 1
	testb	%al, %al
	je	.L397
.LBB181:
.LBB182:
	.loc 8 1750 17
	movq	72(%rbp), %rax
	movq	%rax, %rcx
	call	_ZNKSt7__cxx1112basic_stringIcSt11char_traitsIcESaIcEE4sizeEv
	.loc 8 1750 20 discriminator 1
	cmpq	$15, %rax
	setbe	%al
	.loc 8 1750 3 discriminator 1
	testb	%al, %al
	je	.L398
	.loc 8 1752 17
	movq	64(%rbp), %rax
	addq	$16, %rax
	movq	%rax, %rdx
	shrq	$3, %rdx
	addq	$2147450880, %rdx
	movzbl	(%rdx), %edx
	testb	%dl, %dl
	je	.L399
	movq	%rax, %rcx
	call	__asan_report_load8
.L399:
	movq	64(%rbp), %rax
	movq	16(%rax), %rdx
	movq	64(%rbp), %rax
	movq	%rax, %rcx
	call	_ZNSt7__cxx1112basic_stringIcSt11char_traitsIcESaIcEE10_M_destroyEy
	movq	64(%rbp), %rax
	movq	%rax, -112(%rbp)
.LBB183:
.LBB184:
	.loc 8 388 22
	movq	-112(%rbp), %rax
	movq	%rax, %rcx
	call	_ZNSt7__cxx1112basic_stringIcSt11char_traitsIcESaIcEE13_M_local_dataEv
	movq	%rax, %rdx
	.loc 8 388 23
	nop
.LBE184:
.LBE183:
	.loc 8 1753 14 discriminator 1
	movq	64(%rbp), %rax
	movq	%rax, %rcx
	call	_ZNSt7__cxx1112basic_stringIcSt11char_traitsIcESaIcEE7_M_dataEPc
	.loc 8 1754 20
	movq	64(%rbp), %rax
	movl	$0, %edx
	movq	%rax, %rcx
	call	_ZNSt7__cxx1112basic_stringIcSt11char_traitsIcESaIcEE13_M_set_lengthEy
	jmp	.L397
.L398:
.LBB185:
	.loc 8 1758 36
	movq	72(%rbp), %rax
	movq	%rax, %rcx
	call	_ZNKSt7__cxx1112basic_stringIcSt11char_traitsIcESaIcEE4sizeEv
	movq	%rax, -144(%rbp)
	.loc 8 1759 44 discriminator 1
	movq	72(%rbp), %rax
	movq	%rax, %rcx
	call	_ZNKSt7__cxx1112basic_stringIcSt11char_traitsIcESaIcEE16_M_get_allocatorEv
	movq	%rax, -104(%rbp)
	leaq	-32(%rdi), %rax
	movq	%rax, -96(%rbp)
	movq	-104(%rbp), %rax
	movq	%rax, -88(%rbp)
.LBB186:
.LBB187:
.LBB188:
.LBB189:
.LBB190:
	.loc 10 92 71
	nop
.LBE190:
.LBE189:
.LBE188:
	.loc 9 173 38
	nop
.LBE187:
.LBE186:
	.loc 8 1761 31
	movq	-144(%rbp), %rax
	leaq	1(%rax), %rdx
	leaq	-32(%rdi), %rax
	movq	%rax, %rcx
.LEHB28:
	call	_ZNSt7__cxx1112basic_stringIcSt11char_traitsIcESaIcEE11_S_allocateERS3_y
.LEHE28:
	.loc 8 1761 31 is_stmt 0 discriminator 2
	movq	%rax, -136(%rbp)
	.loc 8 1762 17 is_stmt 1
	movq	64(%rbp), %rax
	addq	$16, %rax
	movq	%rax, %rdx
	shrq	$3, %rdx
	addq	$2147450880, %rdx
	movzbl	(%rdx), %edx
	testb	%dl, %dl
	je	.L401
	movq	%rax, %rcx
	call	__asan_report_load8
.L401:
	movq	64(%rbp), %rax
	movq	16(%rax), %rdx
	movq	64(%rbp), %rax
	movq	%rax, %rcx
	call	_ZNSt7__cxx1112basic_stringIcSt11char_traitsIcESaIcEE10_M_destroyEy
	.loc 8 1763 14
	movq	-136(%rbp), %rdx
	movq	64(%rbp), %rax
	movq	%rax, %rcx
	call	_ZNSt7__cxx1112basic_stringIcSt11char_traitsIcESaIcEE7_M_dataEPc
	.loc 8 1764 18
	movq	-144(%rbp), %rdx
	movq	64(%rbp), %rax
	movq	%rax, %rcx
	call	_ZNSt7__cxx1112basic_stringIcSt11char_traitsIcESaIcEE11_M_capacityEy
	.loc 8 1765 20
	movq	-144(%rbp), %rdx
	movq	64(%rbp), %rax
	movq	%rax, %rcx
	call	_ZNSt7__cxx1112basic_stringIcSt11char_traitsIcESaIcEE13_M_set_lengthEy
.LBB191:
.LBB192:
.LBB193:
	.loc 9 189 39
	leaq	-32(%rdi), %rax
	movq	%rax, %rcx
	call	_ZNSt15__new_allocatorIcED2Ev
.LBE193:
	nop
.LBE192:
.LBE191:
	leaq	-32(%rdi), %rax
	shrq	$3, %rax
	addq	$2147450880, %rax
	movb	$-8, (%rax)
.L397:
.LBE185:
.LBE182:
.LBE181:
.LBE176:
	.loc 8 1768 69
	movq	72(%rbp), %rax
	movq	%rax, %rcx
	call	_ZNKSt7__cxx1112basic_stringIcSt11char_traitsIcESaIcEE16_M_get_allocatorEv
	movq	%rax, %rdi
	.loc 8 1768 43 discriminator 1
	movq	64(%rbp), %rax
	movq	%rax, %rcx
	call	_ZNSt7__cxx1112basic_stringIcSt11char_traitsIcESaIcEE16_M_get_allocatorEv
	movq	%rax, -80(%rbp)
	movq	%rdi, -72(%rbp)
.LBB200:
.LBB201:
	.loc 13 850 5
	nop
.L392:
.LBE201:
.LBE200:
.LBE175:
.LBE172:
	.loc 8 1771 17
	movq	72(%rbp), %rdx
	movq	64(%rbp), %rax
	movq	%rax, %rcx
.LEHB29:
	call	_ZNSt7__cxx1112basic_stringIcSt11char_traitsIcESaIcEE9_M_assignERKS4_
	.loc 8 1772 10
	movq	64(%rbp), %rax
	.loc 8 1772 10 is_stmt 0 discriminator 1
	movq	%rax, %rdx
	.loc 8 1740 7 is_stmt 1
	cmpq	%rbx, %r13
	je	.L388
	jmp	.L405
.L404:
.LBB204:
.LBB203:
.LBB202:
.LBB199:
.LBB198:
.LBB197:
.LBB194:
.LBB195:
.LBB196:
	.loc 9 189 39
	movq	%rax, %rbx
	leaq	-32(%rdi), %rax
	movq	%rax, %rcx
	call	_ZNSt15__new_allocatorIcED2Ev
.LBE196:
	nop
	call	__asan_handle_no_return
	movq	%rbx, %rcx
	call	_Unwind_Resume
.LEHE29:
.L405:
.LBE195:
.LBE194:
.LBE197:
.LBE198:
.LBE199:
.LBE202:
.LBE203:
.LBE204:
	.loc 8 1740 7
	movq	$1172321806, (%rbx)
	movabsq	$-723401728380766731, %rax
	movq	%rax, 2147450880(%rsi)
	movq	56(%rbx), %rax
	movb	$0, (%rax)
	jmp	.L389
.L388:
	movq	$0, 2147450880(%rsi)
.L389:
	.loc 8 1773 7
	movq	%rdx, %rax
	addq	$184, %rsp
	popq	%rbx
	.cfi_restore 3
	popq	%rsi
	.cfi_restore 4
	popq	%rdi
	.cfi_restore 5
	popq	%r12
	.cfi_restore 12
	popq	%r13
	.cfi_restore 13
	popq	%rbp
	.cfi_restore 6
	.cfi_def_cfa 7, -136
	ret
	.cfi_endproc
.LFE2151:
	.seh_handler	__gxx_personality_seh0, @unwind, @except
	.seh_handlerdata
.LLSDA2151:
	.byte	0xff
	.byte	0xff
	.byte	0x1
	.uleb128 .LLSDACSE2151-.LLSDACSB2151
.LLSDACSB2151:
	.uleb128 .LEHB28-.LFB2151
	.uleb128 .LEHE28-.LEHB28
	.uleb128 .L404-.LFB2151
	.uleb128 0
	.uleb128 .LEHB29-.LFB2151
	.uleb128 .LEHE29-.LEHB29
	.uleb128 0
	.uleb128 0
.LLSDACSE2151:
	.section	.text$_ZNSt7__cxx1112basic_stringIcSt11char_traitsIcESaIcEE6assignERKS4_,"x"
	.linkonce discard
	.seh_endproc
	.section .rdata,"dr"
	.align 32
.LC25:
	.ascii "basic_string::_M_replace\0"
	.space 39
	.section	.text$_ZNSt7__cxx1112basic_stringIcSt11char_traitsIcESaIcEE10_M_replaceEyyPKcy,"x"
	.linkonce discard
	.align 2
	.globl	_ZNSt7__cxx1112basic_stringIcSt11char_traitsIcESaIcEE10_M_replaceEyyPKcy
	.def	_ZNSt7__cxx1112basic_stringIcSt11char_traitsIcESaIcEE10_M_replaceEyyPKcy;	.scl	2;	.type	32;	.endef
	.seh_proc	_ZNSt7__cxx1112basic_stringIcSt11char_traitsIcESaIcEE10_M_replaceEyyPKcy
_ZNSt7__cxx1112basic_stringIcSt11char_traitsIcESaIcEE10_M_replaceEyyPKcy:
.LASANPC2154:
.LFB2154:
	.loc 15 542 5
	.cfi_startproc
	pushq	%rbp
	.seh_pushreg	%rbp
	.cfi_def_cfa_offset 16
	.cfi_offset 6, -16
	movq	%rsp, %rbp
	.seh_setframe	%rbp, 0
	.cfi_def_cfa_register 6
	subq	$80, %rsp
	.seh_stackalloc	80
	.seh_endprologue
	movq	%rcx, 16(%rbp)
	movq	%rdx, 24(%rbp)
	movq	%r8, 32(%rbp)
	movq	%r9, 40(%rbp)
	.loc 15 546 22
	leaq	.LC25(%rip), %r8
	movq	48(%rbp), %rcx
	movq	32(%rbp), %rdx
	movq	16(%rbp), %rax
	movq	%r8, %r9
	movq	%rcx, %r8
	movq	%rax, %rcx
	call	_ZNKSt7__cxx1112basic_stringIcSt11char_traitsIcESaIcEE15_M_check_lengthEyyPKc
	.loc 15 548 46
	movq	16(%rbp), %rax
	movq	%rax, %rcx
	call	_ZNKSt7__cxx1112basic_stringIcSt11char_traitsIcESaIcEE4sizeEv
	movq	%rax, -32(%rbp)
	.loc 15 549 47
	movq	-32(%rbp), %rdx
	movq	48(%rbp), %rax
	addq	%rdx, %rax
	.loc 15 549 23
	subq	32(%rbp), %rax
	movq	%rax, -24(%rbp)
.LBB205:
	.loc 15 551 39
	movq	16(%rbp), %rax
	movq	%rax, %rcx
	call	_ZNKSt7__cxx1112basic_stringIcSt11char_traitsIcESaIcEE8capacityEv
	.loc 15 551 22 discriminator 1
	cmpq	-24(%rbp), %rax
	setnb	%al
	.loc 15 551 7 discriminator 1
	testb	%al, %al
	je	.L407
.LBB206:
	.loc 15 553 31
	movq	16(%rbp), %rax
	movq	%rax, %rcx
	call	_ZNKSt7__cxx1112basic_stringIcSt11char_traitsIcESaIcEE7_M_dataEv
	.loc 15 553 12 discriminator 1
	movq	24(%rbp), %rdx
	addq	%rdx, %rax
	movq	%rax, -16(%rbp)
	.loc 15 555 44
	movq	-32(%rbp), %rax
	subq	24(%rbp), %rax
	.loc 15 555 20
	subq	32(%rbp), %rax
	movq	%rax, -8(%rbp)
	.loc 15 568 36
	movq	40(%rbp), %rdx
	movq	16(%rbp), %rax
	movq	%rax, %rcx
	call	_ZNKSt7__cxx1112basic_stringIcSt11char_traitsIcESaIcEE11_M_disjunctEPKc
	.loc 15 568 24 discriminator 1
	movzbl	%al, %eax
	.loc 15 568 24 is_stmt 0 discriminator 2
	testl	%eax, %eax
	setne	%al
	.loc 15 568 4 is_stmt 1 discriminator 2
	testb	%al, %al
	je	.L408
	.loc 15 570 8
	cmpq	$0, -8(%rbp)
	je	.L409
	.loc 15 570 23 discriminator 1
	movq	32(%rbp), %rax
	cmpq	48(%rbp), %rax
	je	.L409
	.loc 15 571 35
	movq	-16(%rbp), %rdx
	movq	32(%rbp), %rax
	addq	%rax, %rdx
	.loc 15 571 16
	movq	-16(%rbp), %rcx
	movq	48(%rbp), %rax
	addq	%rcx, %rax
	movq	-8(%rbp), %rcx
	movq	%rcx, %r8
	movq	%rax, %rcx
	call	_ZNSt7__cxx1112basic_stringIcSt11char_traitsIcESaIcEE7_S_moveEPcPKcy
.L409:
	.loc 15 572 8
	cmpq	$0, 48(%rbp)
	je	.L410
	.loc 15 573 16
	movq	48(%rbp), %rcx
	movq	40(%rbp), %rdx
	movq	-16(%rbp), %rax
	movq	%rcx, %r8
	movq	%rax, %rcx
	call	_ZNSt7__cxx1112basic_stringIcSt11char_traitsIcESaIcEE7_S_copyEPcPKcy
	jmp	.L410
.L408:
	.loc 15 576 21
	movq	40(%rbp), %r9
	movq	32(%rbp), %r8
	movq	-16(%rbp), %rdx
	movq	16(%rbp), %rax
	movq	-8(%rbp), %rcx
	movq	%rcx, 40(%rsp)
	movq	48(%rbp), %rcx
	movq	%rcx, 32(%rsp)
	movq	%rax, %rcx
	call	_ZNSt7__cxx1112basic_stringIcSt11char_traitsIcESaIcEE15_M_replace_coldEPcyPKcyy
	jmp	.L410
.L407:
.LBE206:
	.loc 15 579 17
	movq	40(%rbp), %r9
	movq	32(%rbp), %r8
	movq	24(%rbp), %rdx
	movq	16(%rbp), %rax
	movq	48(%rbp), %rcx
	movq	%rcx, 32(%rsp)
	movq	%rax, %rcx
	call	_ZNSt7__cxx1112basic_stringIcSt11char_traitsIcESaIcEE9_M_mutateEyyPKcy
.L410:
.LBE205:
	.loc 15 581 26
	movq	-24(%rbp), %rdx
	movq	16(%rbp), %rax
	movq	%rax, %rcx
	call	_ZNSt7__cxx1112basic_stringIcSt11char_traitsIcESaIcEE13_M_set_lengthEy
	.loc 15 582 15
	movq	16(%rbp), %rax
	.loc 15 583 5
	addq	$80, %rsp
	popq	%rbp
	.cfi_restore 6
	.cfi_def_cfa 7, 8
	ret
	.cfi_endproc
.LFE2154:
	.seh_endproc
	.section	.text$_ZNSt7__cxx1112basic_stringIcSt11char_traitsIcESaIcEE11_S_allocateERS3_y,"x"
	.linkonce discard
	.globl	_ZNSt7__cxx1112basic_stringIcSt11char_traitsIcESaIcEE11_S_allocateERS3_y
	.def	_ZNSt7__cxx1112basic_stringIcSt11char_traitsIcESaIcEE11_S_allocateERS3_y;	.scl	2;	.type	32;	.endef
	.seh_proc	_ZNSt7__cxx1112basic_stringIcSt11char_traitsIcESaIcEE11_S_allocateERS3_y
_ZNSt7__cxx1112basic_stringIcSt11char_traitsIcESaIcEE11_S_allocateERS3_y:
.LASANPC2160:
.LFB2160:
	.loc 8 140 7
	.cfi_startproc
	pushq	%rbp
	.seh_pushreg	%rbp
	.cfi_def_cfa_offset 16
	.cfi_offset 6, -16
	movq	%rsp, %rbp
	.seh_setframe	%rbp, 0
	.cfi_def_cfa_register 6
	subq	$64, %rsp
	.seh_stackalloc	64
	.seh_endprologue
	movq	%rcx, 16(%rbp)
	movq	%rdx, 24(%rbp)
	movq	16(%rbp), %rax
	movq	%rax, -16(%rbp)
	movq	24(%rbp), %rax
	movq	%rax, -8(%rbp)
.LBB207:
.LBB208:
	.loc 13 614 28
	movq	-8(%rbp), %rdx
	movq	-16(%rbp), %rax
	movl	$0, %r8d
	movq	%rax, %rcx
	call	_ZNSt15__new_allocatorIcE8allocateEyPKv
	.loc 13 614 32
	nop
.LBE208:
.LBE207:
	.loc 8 142 39 discriminator 1
	movq	%rax, -24(%rbp)
	.loc 8 152 9
	movq	-24(%rbp), %rax
	.loc 8 153 7
	addq	$64, %rsp
	popq	%rbp
	.cfi_restore 6
	.cfi_def_cfa 7, 8
	ret
	.cfi_endproc
.LFE2160:
	.seh_endproc
	.section	.text$_ZNSt19__ptr_traits_ptr_toIPKcS0_Lb0EE10pointer_toERS0_,"x"
	.linkonce discard
	.globl	_ZNSt19__ptr_traits_ptr_toIPKcS0_Lb0EE10pointer_toERS0_
	.def	_ZNSt19__ptr_traits_ptr_toIPKcS0_Lb0EE10pointer_toERS0_;	.scl	2;	.type	32;	.endef
	.seh_proc	_ZNSt19__ptr_traits_ptr_toIPKcS0_Lb0EE10pointer_toERS0_
_ZNSt19__ptr_traits_ptr_toIPKcS0_Lb0EE10pointer_toERS0_:
.LASANPC2161:
.LFB2161:
	.loc 14 134 7
	.cfi_startproc
	pushq	%rbp
	.seh_pushreg	%rbp
	.cfi_def_cfa_offset 16
	.cfi_offset 6, -16
	movq	%rsp, %rbp
	.seh_setframe	%rbp, 0
	.cfi_def_cfa_register 6
	subq	$16, %rsp
	.seh_stackalloc	16
	.seh_endprologue
	movq	%rcx, 16(%rbp)
	movq	16(%rbp), %rax
	movq	%rax, -16(%rbp)
	movq	-16(%rbp), %rax
	movq	%rax, -8(%rbp)
.LBB209:
.LBB210:
.LBB211:
.LBB212:
	.loc 12 53 37
	movq	-8(%rbp), %rax
.LBE212:
.LBE211:
	.loc 12 177 34
	nop
.LBE210:
.LBE209:
	.loc 14 135 37
	addq	$16, %rsp
	popq	%rbp
	.cfi_restore 6
	.cfi_def_cfa 7, 8
	ret
	.cfi_endproc
.LFE2161:
	.seh_endproc
	.section .rdata,"dr"
.LC26:
	.ascii "1 32 8 18 __new_capacity:318\0"
	.section	.text$_ZNSt7__cxx1112basic_stringIcSt11char_traitsIcESaIcEE9_M_assignERKS4_,"x"
	.linkonce discard
	.align 2
	.globl	_ZNSt7__cxx1112basic_stringIcSt11char_traitsIcESaIcEE9_M_assignERKS4_
	.def	_ZNSt7__cxx1112basic_stringIcSt11char_traitsIcESaIcEE9_M_assignERKS4_;	.scl	2;	.type	32;	.endef
	.seh_proc	_ZNSt7__cxx1112basic_stringIcSt11char_traitsIcESaIcEE9_M_assignERKS4_
_ZNSt7__cxx1112basic_stringIcSt11char_traitsIcESaIcEE9_M_assignERKS4_:
.LASANPC2179:
.LFB2179:
	.loc 15 308 5
	.cfi_startproc
	pushq	%rbp
	.seh_pushreg	%rbp
	.cfi_def_cfa_offset 16
	.cfi_offset 6, -16
	pushq	%r12
	.seh_pushreg	%r12
	.cfi_def_cfa_offset 24
	.cfi_offset 12, -24
	pushq	%rdi
	.seh_pushreg	%rdi
	.cfi_def_cfa_offset 32
	.cfi_offset 5, -32
	pushq	%rsi
	.seh_pushreg	%rsi
	.cfi_def_cfa_offset 40
	.cfi_offset 4, -40
	pushq	%rbx
	.seh_pushreg	%rbx
	.cfi_def_cfa_offset 48
	.cfi_offset 3, -48
	addq	$-128, %rsp
	.seh_stackalloc	128
	.cfi_def_cfa_offset 176
	leaq	128(%rsp), %rbp
	.seh_setframe	%rbp, 128
	.cfi_def_cfa 6, 48
	.seh_endprologue
	movq	%rcx, 48(%rbp)
	movq	%rdx, 56(%rbp)
	leaq	-64(%rbp), %rbx
	movq	%rbx, %r12
	movq	.refptr.__asan_option_detect_stack_use_after_return(%rip), %rax
	cmpl	$0, (%rax)
	je	.L419
	movl	$64, %ecx
	call	__asan_stack_malloc_0
	testq	%rax, %rax
	je	.L419
	movq	%rax, %rbx
.L419:
	leaq	64(%rbx), %rax
	movq	%rax, %rsi
	movq	$1102416563, (%rbx)
	leaq	.LC26(%rip), %rax
	movq	%rax, 8(%rbx)
	leaq	.LASANPC2179(%rip), %rax
	movq	%rax, 16(%rbx)
	movq	%rbx, %rdi
	shrq	$3, %rdi
	movl	$-235802127, 2147450880(%rdi)
	movl	$-202116352, 2147450884(%rdi)
	movq	56(%rbp), %rax
	movq	%rax, -72(%rbp)
.LBB213:
.LBB214:
.LBB215:
	.loc 12 53 37
	movq	-72(%rbp), %rax
.LBE215:
.LBE214:
	.loc 15 311 16 discriminator 1
	cmpq	%rax, 48(%rbp)
	setne	%al
	.loc 15 311 7 discriminator 1
	testb	%al, %al
	je	.L429
.LBB216:
	.loc 15 313 42
	movq	56(%rbp), %rax
	movq	%rax, %rcx
	call	_ZNKSt7__cxx1112basic_stringIcSt11char_traitsIcESaIcEE6lengthEv
	movq	%rax, -96(%rbp)
	.loc 15 314 41
	movq	48(%rbp), %rax
	movq	%rax, %rcx
	call	_ZNKSt7__cxx1112basic_stringIcSt11char_traitsIcESaIcEE8capacityEv
	movq	%rax, -88(%rbp)
.LBB217:
	.loc 15 316 4
	movq	-96(%rbp), %rax
	cmpq	%rax, -88(%rbp)
	jnb	.L425
.LBB218:
	.loc 15 318 18 discriminator 1
	leaq	-32(%rsi), %rax
	movq	%rax, %rdx
	shrq	$3, %rdx
	addq	$2147450880, %rdx
	movzbl	(%rdx), %edx
	testb	%dl, %dl
	je	.L426
	movq	%rax, %rcx
	call	__asan_report_store8
.L426:
	movq	-96(%rbp), %rax
	movq	%rax, -32(%rsi)
	.loc 15 319 33
	movq	-88(%rbp), %rcx
	leaq	-32(%rsi), %rdx
	movq	48(%rbp), %rax
	movq	%rcx, %r8
	movq	%rax, %rcx
	call	_ZNSt7__cxx1112basic_stringIcSt11char_traitsIcESaIcEE9_M_createERyy
	.loc 15 319 33 is_stmt 0 discriminator 2
	movq	%rax, -80(%rbp)
	.loc 15 320 18 is_stmt 1
	movq	48(%rbp), %rax
	movq	%rax, %rcx
	call	_ZNSt7__cxx1112basic_stringIcSt11char_traitsIcESaIcEE10_M_disposeEv
	.loc 15 321 15
	movq	-80(%rbp), %rdx
	movq	48(%rbp), %rax
	movq	%rax, %rcx
	call	_ZNSt7__cxx1112basic_stringIcSt11char_traitsIcESaIcEE7_M_dataEPc
	.loc 15 322 19
	leaq	-32(%rsi), %rax
	movq	%rax, %rdx
	shrq	$3, %rdx
	addq	$2147450880, %rdx
	movzbl	(%rdx), %edx
	testb	%dl, %dl
	je	.L427
	movq	%rax, %rcx
	call	__asan_report_load8
.L427:
	movq	-32(%rsi), %rdx
	movq	48(%rbp), %rax
	movq	%rax, %rcx
	call	_ZNSt7__cxx1112basic_stringIcSt11char_traitsIcESaIcEE11_M_capacityEy
	leaq	-32(%rsi), %rax
	shrq	$3, %rax
	addq	$2147450880, %rax
	movb	$-8, (%rax)
.L425:
.LBE218:
.LBE217:
	.loc 15 325 4
	cmpq	$0, -96(%rbp)
	je	.L428
	.loc 15 326 44
	movq	56(%rbp), %rax
	movq	%rax, %rcx
	call	_ZNKSt7__cxx1112basic_stringIcSt11char_traitsIcESaIcEE7_M_dataEv
	movq	%rax, %rsi
	.loc 15 326 19 discriminator 1
	movq	48(%rbp), %rax
	movq	%rax, %rcx
	call	_ZNKSt7__cxx1112basic_stringIcSt11char_traitsIcESaIcEE7_M_dataEv
	.loc 15 326 19 is_stmt 0 discriminator 2
	movq	-96(%rbp), %rdx
	movq	%rdx, %r8
	movq	%rsi, %rdx
	movq	%rax, %rcx
	call	_ZNSt7__cxx1112basic_stringIcSt11char_traitsIcESaIcEE7_S_copyEPcPKcy
.L428:
	.loc 15 328 17 is_stmt 1
	movq	-96(%rbp), %rdx
	movq	48(%rbp), %rax
	movq	%rax, %rcx
	call	_ZNSt7__cxx1112basic_stringIcSt11char_traitsIcESaIcEE13_M_set_lengthEy
.L429:
.LBE216:
.LBE213:
	.loc 15 330 5
	nop
	.loc 15 308 5
	cmpq	%rbx, %r12
	je	.L420
	movq	$1172321806, (%rbx)
	movabsq	$-723401728380766731, %rax
	movq	%rax, 2147450880(%rdi)
	movq	56(%rbx), %rax
	movb	$0, (%rax)
	jmp	.L421
.L420:
	movq	$0, 2147450880(%rdi)
.L421:
	.loc 15 330 5
	subq	$-128, %rsp
	popq	%rbx
	.cfi_restore 3
	popq	%rsi
	.cfi_restore 4
	popq	%rdi
	.cfi_restore 5
	popq	%r12
	.cfi_restore 12
	popq	%rbp
	.cfi_restore 6
	.cfi_def_cfa 7, -88
	ret
	.cfi_endproc
.LFE2179:
	.seh_endproc
	.section	.text$_ZNKSt7__cxx1112basic_stringIcSt11char_traitsIcESaIcEE15_M_check_lengthEyyPKc,"x"
	.linkonce discard
	.align 2
	.globl	_ZNKSt7__cxx1112basic_stringIcSt11char_traitsIcESaIcEE15_M_check_lengthEyyPKc
	.def	_ZNKSt7__cxx1112basic_stringIcSt11char_traitsIcESaIcEE15_M_check_lengthEyyPKc;	.scl	2;	.type	32;	.endef
	.seh_proc	_ZNKSt7__cxx1112basic_stringIcSt11char_traitsIcESaIcEE15_M_check_lengthEyyPKc
_ZNKSt7__cxx1112basic_stringIcSt11char_traitsIcESaIcEE15_M_check_lengthEyyPKc:
.LASANPC2180:
.LFB2180:
	.loc 8 420 7
	.cfi_startproc
	pushq	%rbp
	.seh_pushreg	%rbp
	.cfi_def_cfa_offset 16
	.cfi_offset 6, -16
	pushq	%rbx
	.seh_pushreg	%rbx
	.cfi_def_cfa_offset 24
	.cfi_offset 3, -24
	subq	$40, %rsp
	.seh_stackalloc	40
	.cfi_def_cfa_offset 64
	leaq	32(%rsp), %rbp
	.seh_setframe	%rbp, 32
	.cfi_def_cfa 6, 32
	.seh_endprologue
	movq	%rcx, 32(%rbp)
	movq	%rdx, 40(%rbp)
	movq	%r8, 48(%rbp)
	movq	%r9, 56(%rbp)
	.loc 8 422 20
	movq	32(%rbp), %rax
	movq	%rax, %rcx
	call	_ZNKSt7__cxx1112basic_stringIcSt11char_traitsIcESaIcEE8max_sizeEv
	movq	%rax, %rbx
	.loc 8 422 36 discriminator 1
	movq	32(%rbp), %rax
	movq	%rax, %rcx
	call	_ZNKSt7__cxx1112basic_stringIcSt11char_traitsIcESaIcEE4sizeEv
	.loc 8 422 39 discriminator 2
	movq	40(%rbp), %rdx
	subq	%rax, %rdx
	.loc 8 422 23 discriminator 2
	leaq	(%rbx,%rdx), %rax
	.loc 8 422 47 discriminator 2
	cmpq	48(%rbp), %rax
	setb	%al
	.loc 8 422 2 discriminator 2
	testb	%al, %al
	je	.L432
	.loc 8 423 24
	call	__asan_handle_no_return
	movq	56(%rbp), %rax
	movq	%rax, %rcx
	call	_ZSt20__throw_length_errorPKc
.L432:
	.loc 8 424 7
	nop
	addq	$40, %rsp
	popq	%rbx
	.cfi_restore 3
	popq	%rbp
	.cfi_restore 6
	.cfi_def_cfa 7, -24
	ret
	.cfi_endproc
.LFE2180:
	.seh_endproc
	.section .rdata,"dr"
	.align 8
.LC27:
	.ascii "2 48 1 9 <unknown> 64 1 9 <unknown>\0"
	.section	.text$_ZNKSt7__cxx1112basic_stringIcSt11char_traitsIcESaIcEE11_M_disjunctEPKc,"x"
	.linkonce discard
	.align 2
	.globl	_ZNKSt7__cxx1112basic_stringIcSt11char_traitsIcESaIcEE11_M_disjunctEPKc
	.def	_ZNKSt7__cxx1112basic_stringIcSt11char_traitsIcESaIcEE11_M_disjunctEPKc;	.scl	2;	.type	32;	.endef
	.seh_proc	_ZNKSt7__cxx1112basic_stringIcSt11char_traitsIcESaIcEE11_M_disjunctEPKc
_ZNKSt7__cxx1112basic_stringIcSt11char_traitsIcESaIcEE11_M_disjunctEPKc:
.LASANPC2181:
.LFB2181:
	.loc 8 438 7
	.cfi_startproc
	pushq	%rbp
	.seh_pushreg	%rbp
	.cfi_def_cfa_offset 16
	.cfi_offset 6, -16
	pushq	%r14
	.seh_pushreg	%r14
	.cfi_def_cfa_offset 24
	.cfi_offset 14, -24
	pushq	%r13
	.seh_pushreg	%r13
	.cfi_def_cfa_offset 32
	.cfi_offset 13, -32
	pushq	%r12
	.seh_pushreg	%r12
	.cfi_def_cfa_offset 40
	.cfi_offset 12, -40
	pushq	%rdi
	.seh_pushreg	%rdi
	.cfi_def_cfa_offset 48
	.cfi_offset 5, -48
	pushq	%rsi
	.seh_pushreg	%rsi
	.cfi_def_cfa_offset 56
	.cfi_offset 4, -56
	pushq	%rbx
	.seh_pushreg	%rbx
	.cfi_def_cfa_offset 64
	.cfi_offset 3, -64
	addq	$-128, %rsp
	.seh_stackalloc	128
	.cfi_def_cfa_offset 192
	leaq	128(%rsp), %rbp
	.seh_setframe	%rbp, 128
	.cfi_def_cfa 6, 64
	.seh_endprologue
	movq	%rcx, 64(%rbp)
	movq	%rdx, 72(%rbp)
	leaq	-96(%rbp), %rbx
	movq	%rbx, %r14
	movq	.refptr.__asan_option_detect_stack_use_after_return(%rip), %rax
	cmpl	$0, (%rax)
	je	.L433
	movl	$96, %ecx
	call	__asan_stack_malloc_1
	testq	%rax, %rax
	je	.L433
	movq	%rax, %rbx
.L433:
	leaq	96(%rbx), %rax
	movq	%rax, %rdi
	movq	$1102416563, (%rbx)
	leaq	.LC27(%rip), %rax
	movq	%rax, 8(%rbx)
	leaq	.LASANPC2181(%rip), %rax
	movq	%rax, 16(%rbx)
	movq	%rbx, %rsi
	shrq	$3, %rsi
	movl	$-235802127, 2147450880(%rsi)
	movl	$-234753551, 2147450884(%rsi)
	movl	$-202116351, 2147450888(%rsi)
	.loc 8 441 3 discriminator 1
	movl	$1, %r13d
	.loc 8 440 44
	movq	64(%rbp), %rax
	movq	%rax, %rcx
	call	_ZNKSt7__cxx1112basic_stringIcSt11char_traitsIcESaIcEE7_M_dataEv
	movq	%rax, %rcx
	.loc 8 440 31 discriminator 1
	movq	72(%rbp), %rdx
	leaq	-48(%rdi), %rax
	movq	%rcx, %r8
	movq	%rax, %rcx
	call	_ZNKSt4lessIPKcEclES1_S1_
	.loc 8 441 3
	testb	%al, %al
	jne	.L437
	.loc 8 441 35 discriminator 4
	movq	64(%rbp), %rax
	movq	%rax, %rcx
	call	_ZNKSt7__cxx1112basic_stringIcSt11char_traitsIcESaIcEE7_M_dataEv
	movq	%rax, %r12
	.loc 8 441 50 discriminator 5
	movq	64(%rbp), %rax
	movq	%rax, %rcx
	call	_ZNKSt7__cxx1112basic_stringIcSt11char_traitsIcESaIcEE4sizeEv
	.loc 8 441 38 discriminator 6
	leaq	(%r12,%rax), %rdx
	.loc 8 441 27 discriminator 6
	movq	72(%rbp), %rcx
	leaq	-32(%rdi), %rax
	movq	%rcx, %r8
	movq	%rax, %rcx
	call	_ZNKSt4lessIPKcEclES1_S1_
	.loc 8 441 3 discriminator 7
	testb	%al, %al
	je	.L438
.L437:
	.loc 8 441 3 is_stmt 0 discriminator 8
	movl	$1, %eax
	.loc 8 441 3
	jmp	.L439
.L438:
	.loc 8 441 3 discriminator 9
	movl	$0, %eax
.L439:
	.loc 8 441 58 is_stmt 1
	nop
	.loc 8 440 10
	testb	%r13b, %r13b
	.loc 8 441 58 discriminator 15
	movl	%eax, %edx
	.loc 8 438 7
	cmpq	%rbx, %r14
	je	.L434
	movq	$1172321806, (%rbx)
	movabsq	$-723401728380766731, %rax
	movq	%rax, 2147450880(%rsi)
	movl	$-168430091, 2147450888(%rsi)
	movq	120(%rbx), %rax
	movb	$0, (%rax)
	jmp	.L435
.L434:
	movq	$0, 2147450880(%rsi)
	movl	$0, 2147450888(%rsi)
.L435:
	.loc 8 442 7
	movl	%edx, %eax
	subq	$-128, %rsp
	popq	%rbx
	.cfi_restore 3
	popq	%rsi
	.cfi_restore 4
	popq	%rdi
	.cfi_restore 5
	popq	%r12
	.cfi_restore 12
	popq	%r13
	.cfi_restore 13
	popq	%r14
	.cfi_restore 14
	popq	%rbp
	.cfi_restore 6
	.cfi_def_cfa 7, -72
	ret
	.cfi_endproc
.LFE2181:
	.seh_endproc
	.section	.text$_ZNSt7__cxx1112basic_stringIcSt11char_traitsIcESaIcEE7_S_moveEPcPKcy,"x"
	.linkonce discard
	.globl	_ZNSt7__cxx1112basic_stringIcSt11char_traitsIcESaIcEE7_S_moveEPcPKcy
	.def	_ZNSt7__cxx1112basic_stringIcSt11char_traitsIcESaIcEE7_S_moveEPcPKcy;	.scl	2;	.type	32;	.endef
	.seh_proc	_ZNSt7__cxx1112basic_stringIcSt11char_traitsIcESaIcEE7_S_moveEPcPKcy
_ZNSt7__cxx1112basic_stringIcSt11char_traitsIcESaIcEE7_S_moveEPcPKcy:
.LASANPC2182:
.LFB2182:
	.loc 8 458 7
	.cfi_startproc
	pushq	%rbp
	.seh_pushreg	%rbp
	.cfi_def_cfa_offset 16
	.cfi_offset 6, -16
	movq	%rsp, %rbp
	.seh_setframe	%rbp, 0
	.cfi_def_cfa_register 6
	subq	$32, %rsp
	.seh_stackalloc	32
	.seh_endprologue
	movq	%rcx, 16(%rbp)
	movq	%rdx, 24(%rbp)
	movq	%r8, 32(%rbp)
	.loc 8 460 2
	cmpq	$1, 32(%rbp)
	jne	.L443
	.loc 8 461 23
	movq	24(%rbp), %rdx
	movq	16(%rbp), %rax
	movq	%rax, %rcx
	call	_ZNSt11char_traitsIcE6assignERcRKc
	.loc 8 464 7
	jmp	.L445
.L443:
	.loc 8 463 21
	movq	32(%rbp), %rcx
	movq	24(%rbp), %rdx
	movq	16(%rbp), %rax
	movq	%rcx, %r8
	movq	%rax, %rcx
	call	_ZNSt11char_traitsIcE4moveEPcPKcy
.L445:
	.loc 8 464 7
	nop
	addq	$32, %rsp
	popq	%rbp
	.cfi_restore 6
	.cfi_def_cfa 7, 8
	ret
	.cfi_endproc
.LFE2182:
	.seh_endproc
	.section	.text$_ZNSt7__cxx1112basic_stringIcSt11char_traitsIcESaIcEE15_M_replace_coldEPcyPKcyy,"x"
	.linkonce discard
	.align 2
	.globl	_ZNSt7__cxx1112basic_stringIcSt11char_traitsIcESaIcEE15_M_replace_coldEPcyPKcyy
	.def	_ZNSt7__cxx1112basic_stringIcSt11char_traitsIcESaIcEE15_M_replace_coldEPcyPKcyy;	.scl	2;	.type	32;	.endef
	.seh_proc	_ZNSt7__cxx1112basic_stringIcSt11char_traitsIcESaIcEE15_M_replace_coldEPcyPKcyy
_ZNSt7__cxx1112basic_stringIcSt11char_traitsIcESaIcEE15_M_replace_coldEPcyPKcyy:
.LASANPC2183:
.LFB2183:
	.loc 15 510 5
	.cfi_startproc
	pushq	%rbp
	.seh_pushreg	%rbp
	.cfi_def_cfa_offset 16
	.cfi_offset 6, -16
	movq	%rsp, %rbp
	.seh_setframe	%rbp, 0
	.cfi_def_cfa_register 6
	subq	$48, %rsp
	.seh_stackalloc	48
	.seh_endprologue
	movq	%rcx, 16(%rbp)
	movq	%rdx, 24(%rbp)
	movq	%r8, 32(%rbp)
	movq	%r9, 40(%rbp)
	.loc 15 515 7
	cmpq	$0, 48(%rbp)
	je	.L447
	.loc 15 515 18 discriminator 1
	movq	48(%rbp), %rax
	cmpq	%rax, 32(%rbp)
	jb	.L447
	.loc 15 516 15
	movq	48(%rbp), %rcx
	movq	40(%rbp), %rdx
	movq	24(%rbp), %rax
	movq	%rcx, %r8
	movq	%rax, %rcx
	call	_ZNSt7__cxx1112basic_stringIcSt11char_traitsIcESaIcEE7_S_moveEPcPKcy
.L447:
	.loc 15 517 7
	cmpq	$0, 56(%rbp)
	je	.L448
	.loc 15 517 22 discriminator 1
	movq	32(%rbp), %rax
	cmpq	48(%rbp), %rax
	je	.L448
	.loc 15 518 34
	movq	24(%rbp), %rdx
	movq	32(%rbp), %rax
	addq	%rax, %rdx
	.loc 15 518 15
	movq	24(%rbp), %rcx
	movq	48(%rbp), %rax
	addq	%rcx, %rax
	movq	56(%rbp), %rcx
	movq	%rcx, %r8
	movq	%rax, %rcx
	call	_ZNSt7__cxx1112basic_stringIcSt11char_traitsIcESaIcEE7_S_moveEPcPKcy
.L448:
.LBB219:
	.loc 15 519 7
	movq	48(%rbp), %rax
	cmpq	%rax, 32(%rbp)
	jnb	.L452
.LBB220:
.LBB221:
	.loc 15 521 12
	movq	40(%rbp), %rdx
	movq	48(%rbp), %rax
	addq	%rdx, %rax
	.loc 15 521 28
	movq	24(%rbp), %rcx
	movq	32(%rbp), %rdx
	addq	%rcx, %rdx
	.loc 15 521 4
	cmpq	%rax, %rdx
	jb	.L450
	.loc 15 522 19
	movq	48(%rbp), %rcx
	movq	40(%rbp), %rdx
	movq	24(%rbp), %rax
	movq	%rcx, %r8
	movq	%rax, %rcx
	call	_ZNSt7__cxx1112basic_stringIcSt11char_traitsIcESaIcEE7_S_moveEPcPKcy
.LBE221:
.LBE220:
.LBE219:
	.loc 15 537 5
	jmp	.L452
.L450:
.LBB232:
.LBB230:
.LBB228:
.LBB222:
.LBB223:
	.loc 15 523 24
	movq	24(%rbp), %rdx
	movq	32(%rbp), %rax
	addq	%rdx, %rax
	.loc 15 523 9
	cmpq	%rax, 40(%rbp)
	jb	.L451
.LBB224:
	.loc 15 527 38
	movq	40(%rbp), %rax
	subq	24(%rbp), %rax
	movq	%rax, %rdx
	.loc 15 527 55
	movq	48(%rbp), %rax
	subq	32(%rbp), %rax
	.loc 15 527 24
	addq	%rdx, %rax
	movq	%rax, -8(%rbp)
	.loc 15 528 31
	movq	24(%rbp), %rdx
	movq	-8(%rbp), %rax
	addq	%rax, %rdx
	.loc 15 528 21
	movq	48(%rbp), %rcx
	movq	24(%rbp), %rax
	movq	%rcx, %r8
	movq	%rax, %rcx
	call	_ZNSt7__cxx1112basic_stringIcSt11char_traitsIcESaIcEE7_S_copyEPcPKcy
.LBE224:
.LBE223:
.LBE222:
.LBE228:
.LBE230:
.LBE232:
	.loc 15 537 5
	jmp	.L452
.L451:
.LBB233:
.LBB231:
.LBB229:
.LBB227:
.LBB226:
.LBB225:
	.loc 15 532 39
	movq	24(%rbp), %rdx
	movq	32(%rbp), %rax
	addq	%rdx, %rax
	.loc 15 532 49
	subq	40(%rbp), %rax
	.loc 15 532 24
	movq	%rax, -16(%rbp)
	.loc 15 533 21
	movq	-16(%rbp), %rcx
	movq	40(%rbp), %rdx
	movq	24(%rbp), %rax
	movq	%rcx, %r8
	movq	%rax, %rcx
	call	_ZNSt7__cxx1112basic_stringIcSt11char_traitsIcESaIcEE7_S_moveEPcPKcy
	.loc 15 534 21
	movq	48(%rbp), %rax
	subq	-16(%rbp), %rax
	movq	%rax, %r8
	.loc 15 534 41
	movq	24(%rbp), %rdx
	movq	48(%rbp), %rax
	addq	%rax, %rdx
	.loc 15 534 21
	movq	24(%rbp), %rcx
	movq	-16(%rbp), %rax
	addq	%rcx, %rax
	movq	%rax, %rcx
	call	_ZNSt7__cxx1112basic_stringIcSt11char_traitsIcESaIcEE7_S_copyEPcPKcy
.L452:
.LBE225:
.LBE226:
.LBE227:
.LBE229:
.LBE231:
.LBE233:
	.loc 15 537 5
	nop
	addq	$48, %rsp
	popq	%rbp
	.cfi_restore 6
	.cfi_def_cfa 7, 8
	ret
	.cfi_endproc
.LFE2183:
	.seh_endproc
	.section .rdata,"dr"
.LC28:
	.ascii "1 32 8 18 __new_capacity:362\0"
	.section	.text$_ZNSt7__cxx1112basic_stringIcSt11char_traitsIcESaIcEE9_M_mutateEyyPKcy,"x"
	.linkonce discard
	.align 2
	.globl	_ZNSt7__cxx1112basic_stringIcSt11char_traitsIcESaIcEE9_M_mutateEyyPKcy
	.def	_ZNSt7__cxx1112basic_stringIcSt11char_traitsIcESaIcEE9_M_mutateEyyPKcy;	.scl	2;	.type	32;	.endef
	.seh_proc	_ZNSt7__cxx1112basic_stringIcSt11char_traitsIcESaIcEE9_M_mutateEyyPKcy
_ZNSt7__cxx1112basic_stringIcSt11char_traitsIcESaIcEE9_M_mutateEyyPKcy:
.LASANPC2184:
.LFB2184:
	.loc 15 356 5
	.cfi_startproc
	pushq	%rbp
	.seh_pushreg	%rbp
	.cfi_def_cfa_offset 16
	.cfi_offset 6, -16
	pushq	%r12
	.seh_pushreg	%r12
	.cfi_def_cfa_offset 24
	.cfi_offset 12, -24
	pushq	%rdi
	.seh_pushreg	%rdi
	.cfi_def_cfa_offset 32
	.cfi_offset 5, -32
	pushq	%rsi
	.seh_pushreg	%rsi
	.cfi_def_cfa_offset 40
	.cfi_offset 4, -40
	pushq	%rbx
	.seh_pushreg	%rbx
	.cfi_def_cfa_offset 48
	.cfi_offset 3, -48
	subq	$112, %rsp
	.seh_stackalloc	112
	.cfi_def_cfa_offset 160
	leaq	112(%rsp), %rbp
	.seh_setframe	%rbp, 112
	.cfi_def_cfa 6, 48
	.seh_endprologue
	movq	%rcx, 48(%rbp)
	movq	%rdx, 56(%rbp)
	movq	%r8, 64(%rbp)
	movq	%r9, 72(%rbp)
	leaq	-64(%rbp), %rbx
	movq	%rbx, %r12
	movq	.refptr.__asan_option_detect_stack_use_after_return(%rip), %rax
	cmpl	$0, (%rax)
	je	.L453
	movl	$64, %ecx
	call	__asan_stack_malloc_0
	testq	%rax, %rax
	je	.L453
	movq	%rax, %rbx
.L453:
	leaq	64(%rbx), %rax
	movq	%rax, %rsi
	movq	$1102416563, (%rbx)
	leaq	.LC28(%rip), %rax
	movq	%rax, 8(%rbx)
	leaq	.LASANPC2184(%rip), %rax
	movq	%rax, 16(%rbx)
	movq	%rbx, %rdi
	shrq	$3, %rdi
	movl	$-235802127, 2147450880(%rdi)
	movl	$-202116352, 2147450884(%rdi)
	.loc 15 360 42
	movq	48(%rbp), %rax
	movq	%rax, %rcx
	call	_ZNKSt7__cxx1112basic_stringIcSt11char_traitsIcESaIcEE6lengthEv
	.loc 15 360 45 discriminator 1
	subq	56(%rbp), %rax
	.loc 15 360 23 discriminator 1
	subq	64(%rbp), %rax
	movq	%rax, -80(%rbp)
	.loc 15 362 40 discriminator 1
	movq	48(%rbp), %rax
	movq	%rax, %rcx
	call	_ZNKSt7__cxx1112basic_stringIcSt11char_traitsIcESaIcEE6lengthEv
	.loc 15 362 43 discriminator 2
	movq	80(%rbp), %rdx
	addq	%rdx, %rax
	.loc 15 362 52 discriminator 2
	subq	64(%rbp), %rax
	movq	%rax, %rdx
	.loc 15 362 17 discriminator 2
	leaq	-32(%rsi), %rax
	movq	%rax, %rcx
	shrq	$3, %rcx
	addq	$2147450880, %rcx
	movzbl	(%rcx), %ecx
	testb	%cl, %cl
	je	.L457
	movq	%rax, %rcx
	call	__asan_report_store8
.L457:
	movq	%rdx, -32(%rsi)
	.loc 15 363 30
	movq	48(%rbp), %rax
	movq	%rax, %rcx
	call	_ZNKSt7__cxx1112basic_stringIcSt11char_traitsIcESaIcEE8capacityEv
	movq	%rax, %rcx
	.loc 15 363 30 is_stmt 0 discriminator 1
	leaq	-32(%rsi), %rdx
	movq	48(%rbp), %rax
	movq	%rcx, %r8
	movq	%rax, %rcx
	call	_ZNSt7__cxx1112basic_stringIcSt11char_traitsIcESaIcEE9_M_createERyy
	.loc 15 363 30 discriminator 3
	movq	%rax, -72(%rbp)
	.loc 15 365 7 is_stmt 1
	cmpq	$0, 56(%rbp)
	je	.L458
	.loc 15 366 28
	movq	48(%rbp), %rax
	movq	%rax, %rcx
	call	_ZNKSt7__cxx1112basic_stringIcSt11char_traitsIcESaIcEE7_M_dataEv
	movq	%rax, %rdx
	.loc 15 366 15 discriminator 1
	movq	56(%rbp), %rcx
	movq	-72(%rbp), %rax
	movq	%rcx, %r8
	movq	%rax, %rcx
	call	_ZNSt7__cxx1112basic_stringIcSt11char_traitsIcESaIcEE7_S_copyEPcPKcy
.L458:
	.loc 15 367 7
	cmpq	$0, 72(%rbp)
	je	.L459
	.loc 15 367 15 discriminator 1
	cmpq	$0, 80(%rbp)
	je	.L459
	.loc 15 368 15
	movq	-72(%rbp), %rdx
	movq	56(%rbp), %rax
	leaq	(%rdx,%rax), %rcx
	movq	80(%rbp), %rdx
	movq	72(%rbp), %rax
	movq	%rdx, %r8
	movq	%rax, %rdx
	call	_ZNSt7__cxx1112basic_stringIcSt11char_traitsIcESaIcEE7_S_copyEPcPKcy
.L459:
	.loc 15 369 7
	cmpq	$0, -80(%rbp)
	je	.L460
	.loc 15 371 16
	movq	48(%rbp), %rax
	movq	%rax, %rcx
	call	_ZNKSt7__cxx1112basic_stringIcSt11char_traitsIcESaIcEE7_M_dataEv
	.loc 15 371 27 discriminator 1
	movq	56(%rbp), %rcx
	movq	64(%rbp), %rdx
	addq	%rcx, %rdx
	addq	%rax, %rdx
	.loc 15 370 28
	movq	56(%rbp), %rcx
	movq	80(%rbp), %rax
	addq	%rax, %rcx
	.loc 15 370 15
	movq	-72(%rbp), %rax
	addq	%rcx, %rax
	movq	-80(%rbp), %rcx
	movq	%rcx, %r8
	movq	%rax, %rcx
	call	_ZNSt7__cxx1112basic_stringIcSt11char_traitsIcESaIcEE7_S_copyEPcPKcy
.L460:
	.loc 15 373 17
	movq	48(%rbp), %rax
	movq	%rax, %rcx
	call	_ZNSt7__cxx1112basic_stringIcSt11char_traitsIcESaIcEE10_M_disposeEv
	.loc 15 374 14
	movq	-72(%rbp), %rdx
	movq	48(%rbp), %rax
	movq	%rax, %rcx
	call	_ZNSt7__cxx1112basic_stringIcSt11char_traitsIcESaIcEE7_M_dataEPc
	.loc 15 375 18
	leaq	-32(%rsi), %rax
	movq	%rax, %rdx
	shrq	$3, %rdx
	addq	$2147450880, %rdx
	movzbl	(%rdx), %edx
	testb	%dl, %dl
	je	.L461
	movq	%rax, %rcx
	call	__asan_report_load8
.L461:
	movq	-32(%rsi), %rdx
	movq	48(%rbp), %rax
	movq	%rax, %rcx
	call	_ZNSt7__cxx1112basic_stringIcSt11char_traitsIcESaIcEE11_M_capacityEy
	.loc 15 376 5
	nop
	.loc 15 356 5
	cmpq	%rbx, %r12
	je	.L454
	movq	$1172321806, (%rbx)
	movabsq	$-723401728380766731, %rax
	movq	%rax, 2147450880(%rdi)
	movq	56(%rbx), %rax
	movb	$0, (%rax)
	jmp	.L455
.L454:
	movq	$0, 2147450880(%rdi)
.L455:
	.loc 15 376 5
	addq	$112, %rsp
	popq	%rbx
	.cfi_restore 3
	popq	%rsi
	.cfi_restore 4
	popq	%rdi
	.cfi_restore 5
	popq	%r12
	.cfi_restore 12
	popq	%rbp
	.cfi_restore 6
	.cfi_def_cfa 7, -72
	ret
	.cfi_endproc
.LFE2184:
	.seh_endproc
	.section	.text$_ZNSt15__new_allocatorIcE10deallocateEPcy,"x"
	.linkonce discard
	.align 2
	.globl	_ZNSt15__new_allocatorIcE10deallocateEPcy
	.def	_ZNSt15__new_allocatorIcE10deallocateEPcy;	.scl	2;	.type	32;	.endef
	.seh_proc	_ZNSt15__new_allocatorIcE10deallocateEPcy
_ZNSt15__new_allocatorIcE10deallocateEPcy:
.LASANPC2186:
.LFB2186:
	.loc 10 156 7
	.cfi_startproc
	pushq	%rbp
	.seh_pushreg	%rbp
	.cfi_def_cfa_offset 16
	.cfi_offset 6, -16
	movq	%rsp, %rbp
	.seh_setframe	%rbp, 0
	.cfi_def_cfa_register 6
	subq	$32, %rsp
	.seh_stackalloc	32
	.seh_endprologue
	movq	%rcx, 16(%rbp)
	movq	%rdx, 24(%rbp)
	movq	%r8, 32(%rbp)
	.loc 10 172 59
	movq	24(%rbp), %rax
	movq	%rax, %rcx
	call	_ZdlPv
	.loc 10 173 7
	nop
	addq	$32, %rsp
	popq	%rbp
	.cfi_restore 6
	.cfi_def_cfa 7, 8
	ret
	.cfi_endproc
.LFE2186:
	.seh_endproc
	.section	.text$_ZNKSt4lessIPKcEclES1_S1_,"x"
	.linkonce discard
	.align 2
	.globl	_ZNKSt4lessIPKcEclES1_S1_
	.def	_ZNKSt4lessIPKcEclES1_S1_;	.scl	2;	.type	32;	.endef
	.seh_proc	_ZNKSt4lessIPKcEclES1_S1_
_ZNKSt4lessIPKcEclES1_S1_:
.LASANPC2199:
.LFB2199:
	.file 18 "D:/MSYS2_0/ucrt64/include/c++/15.2.0/bits/stl_function.h"
	.loc 18 448 7
	.cfi_startproc
	pushq	%rbp
	.seh_pushreg	%rbp
	.cfi_def_cfa_offset 16
	.cfi_offset 6, -16
	movq	%rsp, %rbp
	.seh_setframe	%rbp, 0
	.cfi_def_cfa_register 6
	.seh_endprologue
	movq	%rcx, 16(%rbp)
	movq	%rdx, 24(%rbp)
	movq	%r8, 32(%rbp)
	.loc 18 454 31
	movq	24(%rbp), %rdx
	movq	32(%rbp), %rax
	.loc 18 454 51
	cmpq	%rax, %rdx
	setb	%al
	.loc 18 455 7
	popq	%rbp
	.cfi_restore 6
	.cfi_def_cfa 7, 8
	ret
	.cfi_endproc
.LFE2199:
	.seh_endproc
	.section	.text$_ZNSt15__new_allocatorIcE8allocateEyPKv,"x"
	.linkonce discard
	.align 2
	.globl	_ZNSt15__new_allocatorIcE8allocateEyPKv
	.def	_ZNSt15__new_allocatorIcE8allocateEyPKv;	.scl	2;	.type	32;	.endef
	.seh_proc	_ZNSt15__new_allocatorIcE8allocateEyPKv
_ZNSt15__new_allocatorIcE8allocateEyPKv:
.LASANPC2200:
.LFB2200:
	.loc 10 126 7
	.cfi_startproc
	pushq	%rbp
	.seh_pushreg	%rbp
	.cfi_def_cfa_offset 16
	.cfi_offset 6, -16
	movq	%rsp, %rbp
	.seh_setframe	%rbp, 0
	.cfi_def_cfa_register 6
	subq	$48, %rsp
	.seh_stackalloc	48
	.seh_endprologue
	movq	%rcx, 16(%rbp)
	movq	%rdx, 24(%rbp)
	movq	%r8, 32(%rbp)
	movq	16(%rbp), %rax
	movq	%rax, -8(%rbp)
.LBB234:
.LBB235:
	.loc 10 233 50
	movabsq	$9223372036854775807, %rax
.LBE235:
.LBE234:
	.loc 10 134 27 discriminator 1
	cmpq	24(%rbp), %rax
	setb	%al
	.loc 10 134 22 discriminator 1
	movzbl	%al, %eax
	.loc 10 134 22 is_stmt 0 discriminator 2
	testl	%eax, %eax
	setne	%al
	.loc 10 134 2 is_stmt 1 discriminator 2
	testb	%al, %al
	je	.L467
	.loc 10 140 28
	call	__asan_handle_no_return
	call	_ZSt17__throw_bad_allocv
.L467:
	.loc 10 151 66
	movq	24(%rbp), %rax
	movq	%rax, %rcx
	call	_Znwy
	.loc 10 152 7
	addq	$48, %rsp
	popq	%rbp
	.cfi_restore 6
	.cfi_def_cfa 7, 8
	ret
	.cfi_endproc
.LFE2200:
	.seh_endproc
	.globl	_ZTV3Log
	.section	.rdata$_ZTV3Log,"dr"
	.linkonce same_size
	.align 8
_ZTV3Log:
	.quad	0
	.quad	_ZTI3Log
	.quad	_ZN3LogD1Ev
	.quad	_ZN3LogD0Ev
	.globl	_ZTI3Log
	.section	.rdata$_ZTI3Log,"dr"
	.linkonce same_size
	.align 8
_ZTI3Log:
	.quad	_ZTVN10__cxxabiv117__class_type_infoE+16
	.quad	_ZTS3Log
	.globl	_ZTS3Log
	.section	.rdata$_ZTS3Log,"dr"
	.linkonce same_size
_ZTS3Log:
	.ascii "3Log\0"
	.globl	_ZTISt9exception
	.section	.rdata$_ZTISt9exception,"dr"
	.linkonce same_size
	.align 8
_ZTISt9exception:
	.quad	_ZTVN10__cxxabiv117__class_type_infoE+16
	.quad	_ZTSSt9exception
	.globl	_ZTSSt9exception
	.section	.rdata$_ZTSSt9exception,"dr"
	.linkonce same_size
	.align 8
_ZTSSt9exception:
	.ascii "St9exception\0"
	.section .rdata,"dr"
.LC29:
	.ascii "log/log.cpp\0"
	.data
	.align 16
.LASANLOC1:
	.quad	.LC29
	.long	198
	.long	20
	.section .rdata,"dr"
	.align 8
.LC30:
	.ascii "D:/MSYS2_0/ucrt64/include/c++/15.2.0/bits/stl_pair.h\0"
	.data
	.align 16
.LASANLOC2:
	.quad	.LC30
	.long	82
	.long	53
	.section .rdata,"dr"
	.align 8
.LC31:
	.ascii "D:/MSYS2_0/ucrt64/include/c++/15.2.0/bits/utility.h\0"
	.data
	.align 16
.LASANLOC3:
	.quad	.LC31
	.long	309
	.long	47
	.section .rdata,"dr"
.LC32:
	.ascii "dropped_logs\0"
.LC33:
	.ascii "piecewise_construct\0"
.LC34:
	.ascii "ignore\0"
.LC35:
	.ascii "*.LC4\0"
.LC36:
	.ascii "*.LC17\0"
.LC37:
	.ascii "*.LC8\0"
.LC38:
	.ascii "*.LC9\0"
.LC39:
	.ascii "*.LC14\0"
.LC40:
	.ascii "*.LC5\0"
.LC41:
	.ascii "*.LC23\0"
.LC42:
	.ascii "*.LC12\0"
.LC43:
	.ascii "*.LC19\0"
.LC44:
	.ascii "*.LC7\0"
.LC45:
	.ascii "*.LC25\0"
.LC46:
	.ascii "*.LC0\0"
.LC47:
	.ascii "*.LC15\0"
.LC48:
	.ascii "*.LC11\0"
.LC49:
	.ascii "*.LC18\0"
.LC50:
	.ascii "*.LC6\0"
.LC51:
	.ascii "*.LC16\0"
.LC52:
	.ascii "*.LC13\0"
	.data
	.align 32
.LASAN0:
	.quad	_ZZN3Log9write_logEiPKczE12dropped_logs
	.quad	4
	.quad	64
	.quad	.LC32
	.quad	.LC29
	.quad	0
	.quad	.LASANLOC1
	.quad	0
	.quad	_ZStL19piecewise_construct
	.quad	1
	.quad	64
	.quad	.LC33
	.quad	.LC29
	.quad	0
	.quad	.LASANLOC2
	.quad	0
	.quad	_ZStL6ignore
	.quad	1
	.quad	64
	.quad	.LC34
	.quad	.LC29
	.quad	0
	.quad	.LASANLOC3
	.quad	0
	.quad	.LC4
	.quad	29
	.quad	64
	.quad	.LC35
	.quad	.LC29
	.quad	0
	.quad	0
	.quad	0
	.quad	.LC17
	.quad	12
	.quad	64
	.quad	.LC36
	.quad	.LC29
	.quad	0
	.quad	0
	.quad	0
	.quad	.LC8
	.quad	2
	.quad	64
	.quad	.LC37
	.quad	.LC29
	.quad	0
	.quad	0
	.quad	0
	.quad	.LC9
	.quad	26
	.quad	64
	.quad	.LC38
	.quad	.LC29
	.quad	0
	.quad	0
	.quad	0
	.quad	.LC14
	.quad	9
	.quad	64
	.quad	.LC39
	.quad	.LC29
	.quad	0
	.quad	0
	.quad	0
	.quad	.LC5
	.quad	26
	.quad	64
	.quad	.LC40
	.quad	.LC29
	.quad	0
	.quad	0
	.quad	0
	.quad	.LC23
	.quad	24
	.quad	64
	.quad	.LC41
	.quad	.LC29
	.quad	0
	.quad	0
	.quad	0
	.quad	.LC12
	.quad	8
	.quad	64
	.quad	.LC42
	.quad	.LC29
	.quad	0
	.quad	0
	.quad	0
	.quad	.LC19
	.quad	37
	.quad	96
	.quad	.LC43
	.quad	.LC29
	.quad	0
	.quad	0
	.quad	0
	.quad	.LC7
	.quad	18
	.quad	64
	.quad	.LC44
	.quad	.LC29
	.quad	0
	.quad	0
	.quad	0
	.quad	.LC25
	.quad	25
	.quad	64
	.quad	.LC45
	.quad	.LC29
	.quad	0
	.quad	0
	.quad	0
	.quad	.LC0
	.quad	32
	.quad	64
	.quad	.LC46
	.quad	.LC29
	.quad	0
	.quad	0
	.quad	0
	.quad	.LC15
	.quad	14
	.quad	64
	.quad	.LC47
	.quad	.LC29
	.quad	0
	.quad	0
	.quad	0
	.quad	.LC11
	.quad	9
	.quad	64
	.quad	.LC48
	.quad	.LC29
	.quad	0
	.quad	0
	.quad	0
	.quad	.LC18
	.quad	38
	.quad	96
	.quad	.LC49
	.quad	.LC29
	.quad	0
	.quad	0
	.quad	0
	.quad	.LC6
	.quad	16
	.quad	64
	.quad	.LC50
	.quad	.LC29
	.quad	0
	.quad	0
	.quad	0
	.quad	.LC16
	.quad	7
	.quad	64
	.quad	.LC51
	.quad	.LC29
	.quad	0
	.quad	0
	.quad	0
	.quad	.LC13
	.quad	8
	.quad	64
	.quad	.LC52
	.quad	.LC29
	.quad	0
	.quad	0
	.quad	0
	.text
	.def	_sub_D_00099_0;	.scl	3;	.type	32;	.endef
	.seh_proc	_sub_D_00099_0
_sub_D_00099_0:
.LFB2206:
	.cfi_startproc
	.loc 7 224 1
	pushq	%rbp
	.seh_pushreg	%rbp
	.cfi_def_cfa_offset 16
	.cfi_offset 6, -16
	movq	%rsp, %rbp
	.seh_setframe	%rbp, 0
	.cfi_def_cfa_register 6
	subq	$32, %rsp
	.seh_stackalloc	32
	.seh_endprologue
	leaq	.LASAN0(%rip), %rax
	movl	$21, %edx
	movq	%rax, %rcx
	call	__asan_unregister_globals
	nop
	addq	$32, %rsp
	popq	%rbp
	.cfi_restore 6
	.cfi_def_cfa 7, 8
	ret
	.cfi_endproc
.LFE2206:
	.seh_endproc
	.section	.dtors.65436,"w"
	.align 8
	.quad	_sub_D_00099_0
	.text
	.def	_sub_I_00099_1;	.scl	3;	.type	32;	.endef
	.seh_proc	_sub_I_00099_1
_sub_I_00099_1:
.LFB2207:
	.cfi_startproc
	.loc 7 224 1
	pushq	%rbp
	.seh_pushreg	%rbp
	.cfi_def_cfa_offset 16
	.cfi_offset 6, -16
	movq	%rsp, %rbp
	.seh_setframe	%rbp, 0
	.cfi_def_cfa_register 6
	subq	$32, %rsp
	.seh_stackalloc	32
	.seh_endprologue
	call	__asan_init
	call	__asan_version_mismatch_check_v8
	leaq	.LASAN0(%rip), %rax
	movl	$21, %edx
	movq	%rax, %rcx
	call	__asan_register_globals
	nop
	addq	$32, %rsp
	popq	%rbp
	.cfi_restore 6
	.cfi_def_cfa 7, 8
	ret
	.cfi_endproc
.LFE2207:
	.seh_endproc
	.section	.ctors.65436,"w"
	.align 8
	.quad	_sub_I_00099_1
	.text
.Letext0:
	.file 19 "D:/MSYS2_0/ucrt64/include/vadefs.h"
	.file 20 "D:/MSYS2_0/ucrt64/include/corecrt.h"
	.file 21 "D:/MSYS2_0/ucrt64/include/sys/timeb.h"
	.file 22 "D:/MSYS2_0/ucrt64/include/time.h"
	.file 23 "D:/MSYS2_0/ucrt64/include/_timeval.h"
	.file 24 "D:/MSYS2_0/ucrt64/include/c++/15.2.0/ctime"
	.file 25 "D:/MSYS2_0/ucrt64/include/c++/15.2.0/cwchar"
	.file 26 "D:/MSYS2_0/ucrt64/include/c++/15.2.0/x86_64-w64-mingw32/bits/c++config.h"
	.file 27 "D:/MSYS2_0/ucrt64/include/c++/15.2.0/bits/exception_ptr.h"
	.file 28 "D:/MSYS2_0/ucrt64/include/c++/15.2.0/clocale"
	.file 29 "D:/MSYS2_0/ucrt64/include/c++/15.2.0/bits/cpp_type_traits.h"
	.file 30 "D:/MSYS2_0/ucrt64/include/c++/15.2.0/bits/stl_pair.h"
	.file 31 "D:/MSYS2_0/ucrt64/include/c++/15.2.0/bits/utility.h"
	.file 32 "D:/MSYS2_0/ucrt64/include/c++/15.2.0/type_traits"
	.file 33 "D:/MSYS2_0/ucrt64/include/c++/15.2.0/debug/debug.h"
	.file 34 "D:/MSYS2_0/ucrt64/include/c++/15.2.0/cstdlib"
	.file 35 "D:/MSYS2_0/ucrt64/include/c++/15.2.0/cstdio"
	.file 36 "D:/MSYS2_0/ucrt64/include/c++/15.2.0/initializer_list"
	.file 37 "D:/MSYS2_0/ucrt64/include/c++/15.2.0/bits/stl_iterator_base_types.h"
	.file 38 "D:/MSYS2_0/ucrt64/include/c++/15.2.0/bits/stringfwd.h"
	.file 39 "D:/MSYS2_0/ucrt64/include/c++/15.2.0/cwctype"
	.file 40 "D:/MSYS2_0/ucrt64/include/c++/15.2.0/bits/ostream.tcc"
	.file 41 "D:/MSYS2_0/ucrt64/include/c++/15.2.0/bits/ostream.h"
	.file 42 "D:/MSYS2_0/ucrt64/include/c++/15.2.0/iosfwd"
	.file 43 "D:/MSYS2_0/ucrt64/include/c++/15.2.0/iostream"
	.file 44 "D:/MSYS2_0/ucrt64/include/c++/15.2.0/bits/std_abs.h"
	.file 45 "D:/MSYS2_0/ucrt64/include/c++/15.2.0/bits/functexcept.h"
	.file 46 "D:/MSYS2_0/ucrt64/include/c++/15.2.0/ostream"
	.file 47 "D:/MSYS2_0/ucrt64/include/wchar.h"
	.file 48 "D:/MSYS2_0/ucrt64/include/swprintf.inl"
	.file 49 "D:/MSYS2_0/ucrt64/include/string.h"
	.file 50 "D:/MSYS2_0/ucrt64/include/c++/15.2.0/bits/predefined_ops.h"
	.file 51 "D:/MSYS2_0/ucrt64/include/c++/15.2.0/bits/stl_iterator.h"
	.file 52 "D:/MSYS2_0/ucrt64/include/locale.h"
	.file 53 "D:/MSYS2_0/ucrt64/include/sched.h"
	.file 54 "D:/MSYS2_0/ucrt64/include/pthread.h"
	.file 55 "D:/MSYS2_0/ucrt64/include/stdlib.h"
	.file 56 "D:/MSYS2_0/ucrt64/include/process.h"
	.file 57 "D:/MSYS2_0/ucrt64/include/wctype.h"
	.file 58 "D:/MSYS2_0/ucrt64/include/corecrt_wctype.h"
	.file 59 "D:/MSYS2_0/ucrt64/include/c++/15.2.0/stdlib.h"
	.file 60 "D:/MSYS2_0/ucrt64/include/sys/time.h"
	.file 61 "D:/MSYS2_0/ucrt64/include/c++/15.2.0/new"
	.file 62 "D:/MSYS2_0/ucrt64/include/c++/15.2.0/system_error"
	.data
	.align 8
.LDFCM0:
	.quad	_ZTISt9exception
	.def	__asan_stack_malloc_0;	.scl	2;	.type	32;	.endef
	.def	__asan_stack_malloc_4;	.scl	2;	.type	32;	.endef
	.def	__asan_stack_malloc_3;	.scl	2;	.type	32;	.endef
	.def	__asan_stack_malloc_1;	.scl	2;	.type	32;	.endef
	.def	__gxx_personality_seh0;	.scl	2;	.type	32;	.endef
	.ident	"GCC: (Rev8, Built by MSYS2 project) 15.2.0"
	.def	__mingw_vsnprintf;	.scl	2;	.type	32;	.endef
	.def	__asan_report_store8;	.scl	2;	.type	32;	.endef
	.def	__asan_report_load1;	.scl	2;	.type	32;	.endef
	.def	__asan_report_store1;	.scl	2;	.type	32;	.endef
	.def	strlen;	.scl	2;	.type	32;	.endef
	.def	memmove;	.scl	2;	.type	32;	.endef
	.def	memcpy;	.scl	2;	.type	32;	.endef
	.def	pthread_mutex_init;	.scl	2;	.type	32;	.endef
	.def	__cxa_allocate_exception;	.scl	2;	.type	32;	.endef
	.def	__asan_handle_no_return;	.scl	2;	.type	32;	.endef
	.def	__cxa_throw;	.scl	2;	.type	32;	.endef
	.def	pthread_mutex_destroy;	.scl	2;	.type	32;	.endef
	.def	pthread_mutex_lock;	.scl	2;	.type	32;	.endef
	.def	pthread_mutex_unlock;	.scl	2;	.type	32;	.endef
	.def	__asan_report_load8;	.scl	2;	.type	32;	.endef
	.def	pthread_cond_init;	.scl	2;	.type	32;	.endef
	.def	pthread_cond_destroy;	.scl	2;	.type	32;	.endef
	.def	pthread_cond_wait;	.scl	2;	.type	32;	.endef
	.def	pthread_cond_broadcast;	.scl	2;	.type	32;	.endef
	.def	__cxa_guard_acquire;	.scl	2;	.type	32;	.endef
	.def	atexit;	.scl	2;	.type	32;	.endef
	.def	__cxa_guard_release;	.scl	2;	.type	32;	.endef
	.def	__cxa_guard_abort;	.scl	2;	.type	32;	.endef
	.def	_Unwind_Resume;	.scl	2;	.type	32;	.endef
	.def	__cxa_begin_catch;	.scl	2;	.type	32;	.endef
	.def	_ZStlsISt11char_traitsIcEERSt13basic_ostreamIcT_ES5_PKc;	.scl	2;	.type	32;	.endef
	.def	_ZNSolsEPFRSoS_E;	.scl	2;	.type	32;	.endef
	.def	__cxa_end_catch;	.scl	2;	.type	32;	.endef
	.def	fputs;	.scl	2;	.type	32;	.endef
	.def	fflush;	.scl	2;	.type	32;	.endef
	.def	fclose;	.scl	2;	.type	32;	.endef
	.def	_ZdlPv;	.scl	2;	.type	32;	.endef
	.def	_ZdaPv;	.scl	2;	.type	32;	.endef
	.def	_Znwy;	.scl	2;	.type	32;	.endef
	.def	pthread_create;	.scl	2;	.type	32;	.endef
	.def	pthread_detach;	.scl	2;	.type	32;	.endef
	.def	__asan_report_store4;	.scl	2;	.type	32;	.endef
	.def	_Znay;	.scl	2;	.type	32;	.endef
	.def	__asan_report_load4;	.scl	2;	.type	32;	.endef
	.def	memset;	.scl	2;	.type	32;	.endef
	.def	strrchr;	.scl	2;	.type	32;	.endef
	.def	__asan_report_store_n;	.scl	2;	.type	32;	.endef
	.def	strcpy;	.scl	2;	.type	32;	.endef
	.def	strncpy;	.scl	2;	.type	32;	.endef
	.def	fopen;	.scl	2;	.type	32;	.endef
	.def	gettimeofday;	.scl	2;	.type	32;	.endef
	.def	__asan_report_store16;	.scl	2;	.type	32;	.endef
	.def	_ZNSolsEi;	.scl	2;	.type	32;	.endef
	.def	exit;	.scl	2;	.type	32;	.endef
	.def	_ZSt20__throw_length_errorPKc;	.scl	2;	.type	32;	.endef
	.def	_ZSt17__throw_bad_allocv;	.scl	2;	.type	32;	.endef
	.def	__asan_unregister_globals;	.scl	2;	.type	32;	.endef
	.def	__asan_init;	.scl	2;	.type	32;	.endef
	.def	__asan_version_mismatch_check_v8;	.scl	2;	.type	32;	.endef
	.def	__asan_register_globals;	.scl	2;	.type	32;	.endef
	.section	.rdata$.refptr.__asan_option_detect_stack_use_after_return, "dr"
	.p2align	3, 0
	.globl	.refptr.__asan_option_detect_stack_use_after_return
	.linkonce	discard
.refptr.__asan_option_detect_stack_use_after_return:
	.quad	__asan_option_detect_stack_use_after_return
	.section	.rdata$.refptr._ZSt4endlIcSt11char_traitsIcEERSt13basic_ostreamIT_T0_ES6_, "dr"
	.p2align	3, 0
	.globl	.refptr._ZSt4endlIcSt11char_traitsIcEERSt13basic_ostreamIT_T0_ES6_
	.linkonce	discard
.refptr._ZSt4endlIcSt11char_traitsIcEERSt13basic_ostreamIT_T0_ES6_:
	.quad	_ZSt4endlIcSt11char_traitsIcEERSt13basic_ostreamIT_T0_ES6_
	.section	.rdata$.refptr._ZSt4cerr, "dr"
	.p2align	3, 0
	.globl	.refptr._ZSt4cerr
	.linkonce	discard
.refptr._ZSt4cerr:
	.quad	_ZSt4cerr
	.section	.rdata$.refptr._ZNSt9exceptionD1Ev, "dr"
	.p2align	3, 0
	.globl	.refptr._ZNSt9exceptionD1Ev
	.linkonce	discard
.refptr._ZNSt9exceptionD1Ev:
	.quad	_ZNSt9exceptionD1Ev
	.section	.rdata$.refptr._ZTVSt9exception, "dr"
	.p2align	3, 0
	.globl	.refptr._ZTVSt9exception
	.linkonce	discard
.refptr._ZTVSt9exception:
	.quad	_ZTVSt9exception
